
./iptables:     file format elf32-i386


Disassembly of section .init:

08048f6c <_init>:
 8048f6c:	55                   	push   %ebp
 8048f6d:	89 e5                	mov    %esp,%ebp
 8048f6f:	53                   	push   %ebx
 8048f70:	83 ec 04             	sub    $0x4,%esp
 8048f73:	e8 00 00 00 00       	call   8048f78 <_init+0xc>
 8048f78:	5b                   	pop    %ebx
 8048f79:	81 c3 94 e1 02 00    	add    $0x2e194,%ebx
 8048f7f:	8b 93 fc ff ff ff    	mov    -0x4(%ebx),%edx
 8048f85:	85 d2                	test   %edx,%edx
 8048f87:	74 05                	je     8048f8e <_init+0x22>
 8048f89:	e8 be 00 00 00       	call   804904c <__gmon_start__@plt>
 8048f8e:	e8 1d 06 00 00       	call   80495b0 <frame_dummy>
 8048f93:	e8 e8 d4 01 00       	call   8066480 <__do_global_ctors_aux>
 8048f98:	58                   	pop    %eax
 8048f99:	5b                   	pop    %ebx
 8048f9a:	c9                   	leave  
 8048f9b:	c3                   	ret    

Disassembly of section .plt:

08048f9c <fputs@plt-0x10>:
 8048f9c:	ff 35 10 71 07 08    	pushl  0x8077110
 8048fa2:	ff 25 14 71 07 08    	jmp    *0x8077114
 8048fa8:	00 00                	add    %al,(%eax)
	...

08048fac <fputs@plt>:
 8048fac:	ff 25 18 71 07 08    	jmp    *0x8077118
 8048fb2:	68 00 00 00 00       	push   $0x0
 8048fb7:	e9 e0 ff ff ff       	jmp    8048f9c <_init+0x30>

08048fbc <abort@plt>:
 8048fbc:	ff 25 1c 71 07 08    	jmp    *0x807711c
 8048fc2:	68 08 00 00 00       	push   $0x8
 8048fc7:	e9 d0 ff ff ff       	jmp    8048f9c <_init+0x30>

08048fcc <__errno_location@plt>:
 8048fcc:	ff 25 20 71 07 08    	jmp    *0x8077120
 8048fd2:	68 10 00 00 00       	push   $0x10
 8048fd7:	e9 c0 ff ff ff       	jmp    8048f9c <_init+0x30>

08048fdc <inet_ntop@plt>:
 8048fdc:	ff 25 24 71 07 08    	jmp    *0x8077124
 8048fe2:	68 18 00 00 00       	push   $0x18
 8048fe7:	e9 b0 ff ff ff       	jmp    8048f9c <_init+0x30>

08048fec <sprintf@plt>:
 8048fec:	ff 25 28 71 07 08    	jmp    *0x8077128
 8048ff2:	68 20 00 00 00       	push   $0x20
 8048ff7:	e9 a0 ff ff ff       	jmp    8048f9c <_init+0x30>

08048ffc <strerror@plt>:
 8048ffc:	ff 25 2c 71 07 08    	jmp    *0x807712c
 8049002:	68 28 00 00 00       	push   $0x28
 8049007:	e9 90 ff ff ff       	jmp    8048f9c <_init+0x30>

0804900c <memcmp@plt>:
 804900c:	ff 25 30 71 07 08    	jmp    *0x8077130
 8049012:	68 30 00 00 00       	push   $0x30
 8049017:	e9 80 ff ff ff       	jmp    8048f9c <_init+0x30>

0804901c <freeaddrinfo@plt>:
 804901c:	ff 25 34 71 07 08    	jmp    *0x8077134
 8049022:	68 38 00 00 00       	push   $0x38
 8049027:	e9 70 ff ff ff       	jmp    8048f9c <_init+0x30>

0804902c <open64@plt>:
 804902c:	ff 25 38 71 07 08    	jmp    *0x8077138
 8049032:	68 40 00 00 00       	push   $0x40
 8049037:	e9 60 ff ff ff       	jmp    8048f9c <_init+0x30>

0804903c <getnetbyaddr@plt>:
 804903c:	ff 25 3c 71 07 08    	jmp    *0x807713c
 8049042:	68 48 00 00 00       	push   $0x48
 8049047:	e9 50 ff ff ff       	jmp    8048f9c <_init+0x30>

0804904c <__gmon_start__@plt>:
 804904c:	ff 25 40 71 07 08    	jmp    *0x8077140
 8049052:	68 50 00 00 00       	push   $0x50
 8049057:	e9 40 ff ff ff       	jmp    8048f9c <_init+0x30>

0804905c <realloc@plt>:
 804905c:	ff 25 44 71 07 08    	jmp    *0x8077144
 8049062:	68 58 00 00 00       	push   $0x58
 8049067:	e9 30 ff ff ff       	jmp    8048f9c <_init+0x30>

0804906c <strsep@plt>:
 804906c:	ff 25 48 71 07 08    	jmp    *0x8077148
 8049072:	68 60 00 00 00       	push   $0x60
 8049077:	e9 20 ff ff ff       	jmp    8048f9c <_init+0x30>

0804907c <localtime@plt>:
 804907c:	ff 25 4c 71 07 08    	jmp    *0x807714c
 8049082:	68 68 00 00 00       	push   $0x68
 8049087:	e9 10 ff ff ff       	jmp    8048f9c <_init+0x30>

0804908c <getgrnam@plt>:
 804908c:	ff 25 50 71 07 08    	jmp    *0x8077150
 8049092:	68 70 00 00 00       	push   $0x70
 8049097:	e9 00 ff ff ff       	jmp    8048f9c <_init+0x30>

0804909c <strtod@plt>:
 804909c:	ff 25 54 71 07 08    	jmp    *0x8077154
 80490a2:	68 78 00 00 00       	push   $0x78
 80490a7:	e9 f0 fe ff ff       	jmp    8048f9c <_init+0x30>

080490ac <strchr@plt>:
 80490ac:	ff 25 58 71 07 08    	jmp    *0x8077158
 80490b2:	68 80 00 00 00       	push   $0x80
 80490b7:	e9 e0 fe ff ff       	jmp    8048f9c <_init+0x30>

080490bc <getenv@plt>:
 80490bc:	ff 25 5c 71 07 08    	jmp    *0x807715c
 80490c2:	68 88 00 00 00       	push   $0x88
 80490c7:	e9 d0 fe ff ff       	jmp    8048f9c <_init+0x30>

080490cc <calloc@plt>:
 80490cc:	ff 25 60 71 07 08    	jmp    *0x8077160
 80490d2:	68 90 00 00 00       	push   $0x90
 80490d7:	e9 c0 fe ff ff       	jmp    8048f9c <_init+0x30>

080490dc <strncpy@plt>:
 80490dc:	ff 25 64 71 07 08    	jmp    *0x8077164
 80490e2:	68 98 00 00 00       	push   $0x98
 80490e7:	e9 b0 fe ff ff       	jmp    8048f9c <_init+0x30>

080490ec <putchar@plt>:
 80490ec:	ff 25 68 71 07 08    	jmp    *0x8077168
 80490f2:	68 a0 00 00 00       	push   $0xa0
 80490f7:	e9 a0 fe ff ff       	jmp    8048f9c <_init+0x30>

080490fc <fgets@plt>:
 80490fc:	ff 25 6c 71 07 08    	jmp    *0x807716c
 8049102:	68 a8 00 00 00       	push   $0xa8
 8049107:	e9 90 fe ff ff       	jmp    8048f9c <_init+0x30>

0804910c <memset@plt>:
 804910c:	ff 25 70 71 07 08    	jmp    *0x8077170
 8049112:	68 b0 00 00 00       	push   $0xb0
 8049117:	e9 80 fe ff ff       	jmp    8048f9c <_init+0x30>

0804911c <fopen64@plt>:
 804911c:	ff 25 74 71 07 08    	jmp    *0x8077174
 8049122:	68 b8 00 00 00       	push   $0xb8
 8049127:	e9 70 fe ff ff       	jmp    8048f9c <_init+0x30>

0804912c <getprotobyname@plt>:
 804912c:	ff 25 78 71 07 08    	jmp    *0x8077178
 8049132:	68 c0 00 00 00       	push   $0xc0
 8049137:	e9 60 fe ff ff       	jmp    8048f9c <_init+0x30>

0804913c <__libc_start_main@plt>:
 804913c:	ff 25 7c 71 07 08    	jmp    *0x807717c
 8049142:	68 c8 00 00 00       	push   $0xc8
 8049147:	e9 50 fe ff ff       	jmp    8048f9c <_init+0x30>

0804914c <wait@plt>:
 804914c:	ff 25 80 71 07 08    	jmp    *0x8077180
 8049152:	68 d0 00 00 00       	push   $0xd0
 8049157:	e9 40 fe ff ff       	jmp    8048f9c <_init+0x30>

0804915c <strrchr@plt>:
 804915c:	ff 25 84 71 07 08    	jmp    *0x8077184
 8049162:	68 d8 00 00 00       	push   $0xd8
 8049167:	e9 30 fe ff ff       	jmp    8048f9c <_init+0x30>

0804916c <uname@plt>:
 804916c:	ff 25 88 71 07 08    	jmp    *0x8077188
 8049172:	68 e0 00 00 00       	push   $0xe0
 8049177:	e9 20 fe ff ff       	jmp    8048f9c <_init+0x30>

0804917c <read@plt>:
 804917c:	ff 25 8c 71 07 08    	jmp    *0x807718c
 8049182:	68 e8 00 00 00       	push   $0xe8
 8049187:	e9 10 fe ff ff       	jmp    8048f9c <_init+0x30>

0804918c <perror@plt>:
 804918c:	ff 25 90 71 07 08    	jmp    *0x8077190
 8049192:	68 f0 00 00 00       	push   $0xf0
 8049197:	e9 00 fe ff ff       	jmp    8048f9c <_init+0x30>

0804919c <strtol@plt>:
 804919c:	ff 25 94 71 07 08    	jmp    *0x8077194
 80491a2:	68 f8 00 00 00       	push   $0xf8
 80491a7:	e9 f0 fd ff ff       	jmp    8048f9c <_init+0x30>

080491ac <getservbyport@plt>:
 80491ac:	ff 25 98 71 07 08    	jmp    *0x8077198
 80491b2:	68 00 01 00 00       	push   $0x100
 80491b7:	e9 e0 fd ff ff       	jmp    8048f9c <_init+0x30>

080491bc <__ctype_toupper_loc@plt>:
 80491bc:	ff 25 9c 71 07 08    	jmp    *0x807719c
 80491c2:	68 08 01 00 00       	push   $0x108
 80491c7:	e9 d0 fd ff ff       	jmp    8048f9c <_init+0x30>

080491cc <free@plt>:
 80491cc:	ff 25 a0 71 07 08    	jmp    *0x80771a0
 80491d2:	68 10 01 00 00       	push   $0x110
 80491d7:	e9 c0 fd ff ff       	jmp    8048f9c <_init+0x30>

080491dc <strtoull@plt>:
 80491dc:	ff 25 a4 71 07 08    	jmp    *0x80771a4
 80491e2:	68 18 01 00 00       	push   $0x118
 80491e7:	e9 b0 fd ff ff       	jmp    8048f9c <_init+0x30>

080491ec <inet_pton@plt>:
 80491ec:	ff 25 a8 71 07 08    	jmp    *0x80771a8
 80491f2:	68 20 01 00 00       	push   $0x120
 80491f7:	e9 a0 fd ff ff       	jmp    8048f9c <_init+0x30>

080491fc <getprotobynumber@plt>:
 80491fc:	ff 25 ac 71 07 08    	jmp    *0x80771ac
 8049202:	68 28 01 00 00       	push   $0x128
 8049207:	e9 90 fd ff ff       	jmp    8048f9c <_init+0x30>

0804920c <fflush@plt>:
 804920c:	ff 25 b0 71 07 08    	jmp    *0x80771b0
 8049212:	68 30 01 00 00       	push   $0x130
 8049217:	e9 80 fd ff ff       	jmp    8048f9c <_init+0x30>

0804921c <getopt_long@plt>:
 804921c:	ff 25 b4 71 07 08    	jmp    *0x80771b4
 8049222:	68 38 01 00 00       	push   $0x138
 8049227:	e9 70 fd ff ff       	jmp    8048f9c <_init+0x30>

0804922c <socket@plt>:
 804922c:	ff 25 b8 71 07 08    	jmp    *0x80771b8
 8049232:	68 40 01 00 00       	push   $0x140
 8049237:	e9 60 fd ff ff       	jmp    8048f9c <_init+0x30>

0804923c <__ctype_b_loc@plt>:
 804923c:	ff 25 bc 71 07 08    	jmp    *0x80771bc
 8049242:	68 48 01 00 00       	push   $0x148
 8049247:	e9 50 fd ff ff       	jmp    8048f9c <_init+0x30>

0804924c <getaddrinfo@plt>:
 804924c:	ff 25 c0 71 07 08    	jmp    *0x80771c0
 8049252:	68 50 01 00 00       	push   $0x150
 8049257:	e9 40 fd ff ff       	jmp    8048f9c <_init+0x30>

0804925c <fclose@plt>:
 804925c:	ff 25 c4 71 07 08    	jmp    *0x80771c4
 8049262:	68 58 01 00 00       	push   $0x158
 8049267:	e9 30 fd ff ff       	jmp    8048f9c <_init+0x30>

0804926c <mktime@plt>:
 804926c:	ff 25 c8 71 07 08    	jmp    *0x80771c8
 8049272:	68 60 01 00 00       	push   $0x160
 8049277:	e9 20 fd ff ff       	jmp    8048f9c <_init+0x30>

0804927c <execv@plt>:
 804927c:	ff 25 cc 71 07 08    	jmp    *0x80771cc
 8049282:	68 68 01 00 00       	push   $0x168
 8049287:	e9 10 fd ff ff       	jmp    8048f9c <_init+0x30>

0804928c <strtoul@plt>:
 804928c:	ff 25 d0 71 07 08    	jmp    *0x80771d0
 8049292:	68 70 01 00 00       	push   $0x170
 8049297:	e9 00 fd ff ff       	jmp    8048f9c <_init+0x30>

0804929c <getnetbyname@plt>:
 804929c:	ff 25 d4 71 07 08    	jmp    *0x80771d4
 80492a2:	68 78 01 00 00       	push   $0x178
 80492a7:	e9 f0 fc ff ff       	jmp    8048f9c <_init+0x30>

080492ac <getpwuid@plt>:
 80492ac:	ff 25 d8 71 07 08    	jmp    *0x80771d8
 80492b2:	68 80 01 00 00       	push   $0x180
 80492b7:	e9 e0 fc ff ff       	jmp    8048f9c <_init+0x30>

080492bc <__xpg_basename@plt>:
 80492bc:	ff 25 dc 71 07 08    	jmp    *0x80771dc
 80492c2:	68 88 01 00 00       	push   $0x188
 80492c7:	e9 d0 fc ff ff       	jmp    8048f9c <_init+0x30>

080492cc <strcpy@plt>:
 80492cc:	ff 25 e0 71 07 08    	jmp    *0x80771e0
 80492d2:	68 90 01 00 00       	push   $0x190
 80492d7:	e9 c0 fc ff ff       	jmp    8048f9c <_init+0x30>

080492dc <printf@plt>:
 80492dc:	ff 25 e4 71 07 08    	jmp    *0x80771e4
 80492e2:	68 98 01 00 00       	push   $0x198
 80492e7:	e9 b0 fc ff ff       	jmp    8048f9c <_init+0x30>

080492ec <ctime@plt>:
 80492ec:	ff 25 e8 71 07 08    	jmp    *0x80771e8
 80492f2:	68 a0 01 00 00       	push   $0x1a0
 80492f7:	e9 a0 fc ff ff       	jmp    8048f9c <_init+0x30>

080492fc <gethostbyaddr@plt>:
 80492fc:	ff 25 ec 71 07 08    	jmp    *0x80771ec
 8049302:	68 a8 01 00 00       	push   $0x1a8
 8049307:	e9 90 fc ff ff       	jmp    8048f9c <_init+0x30>

0804930c <atoi@plt>:
 804930c:	ff 25 f0 71 07 08    	jmp    *0x80771f0
 8049312:	68 b0 01 00 00       	push   $0x1b0
 8049317:	e9 80 fc ff ff       	jmp    8048f9c <_init+0x30>

0804931c <strcasecmp@plt>:
 804931c:	ff 25 f4 71 07 08    	jmp    *0x80771f4
 8049322:	68 b8 01 00 00       	push   $0x1b8
 8049327:	e9 70 fc ff ff       	jmp    8048f9c <_init+0x30>

0804932c <atof@plt>:
 804932c:	ff 25 f8 71 07 08    	jmp    *0x80771f8
 8049332:	68 c0 01 00 00       	push   $0x1c0
 8049337:	e9 60 fc ff ff       	jmp    8048f9c <_init+0x30>

0804933c <close@plt>:
 804933c:	ff 25 fc 71 07 08    	jmp    *0x80771fc
 8049342:	68 c8 01 00 00       	push   $0x1c8
 8049347:	e9 50 fc ff ff       	jmp    8048f9c <_init+0x30>

0804934c <fwrite@plt>:
 804934c:	ff 25 00 72 07 08    	jmp    *0x8077200
 8049352:	68 d0 01 00 00       	push   $0x1d0
 8049357:	e9 40 fc ff ff       	jmp    8048f9c <_init+0x30>

0804935c <fprintf@plt>:
 804935c:	ff 25 04 72 07 08    	jmp    *0x8077204
 8049362:	68 d8 01 00 00       	push   $0x1d8
 8049367:	e9 30 fc ff ff       	jmp    8048f9c <_init+0x30>

0804936c <time@plt>:
 804936c:	ff 25 08 72 07 08    	jmp    *0x8077208
 8049372:	68 e0 01 00 00       	push   $0x1e0
 8049377:	e9 20 fc ff ff       	jmp    8048f9c <_init+0x30>

0804937c <malloc@plt>:
 804937c:	ff 25 0c 72 07 08    	jmp    *0x807720c
 8049382:	68 e8 01 00 00       	push   $0x1e8
 8049387:	e9 10 fc ff ff       	jmp    8048f9c <_init+0x30>

0804938c <fputc@plt>:
 804938c:	ff 25 10 72 07 08    	jmp    *0x8077210
 8049392:	68 f0 01 00 00       	push   $0x1f0
 8049397:	e9 00 fc ff ff       	jmp    8048f9c <_init+0x30>

0804939c <strtok@plt>:
 804939c:	ff 25 14 72 07 08    	jmp    *0x8077214
 80493a2:	68 f8 01 00 00       	push   $0x1f8
 80493a7:	e9 f0 fb ff ff       	jmp    8048f9c <_init+0x30>

080493ac <strnlen@plt>:
 80493ac:	ff 25 18 72 07 08    	jmp    *0x8077218
 80493b2:	68 00 02 00 00       	push   $0x200
 80493b7:	e9 e0 fb ff ff       	jmp    8048f9c <_init+0x30>

080493bc <getgrgid@plt>:
 80493bc:	ff 25 1c 72 07 08    	jmp    *0x807721c
 80493c2:	68 08 02 00 00       	push   $0x208
 80493c7:	e9 d0 fb ff ff       	jmp    8048f9c <_init+0x30>

080493cc <strncasecmp@plt>:
 80493cc:	ff 25 20 72 07 08    	jmp    *0x8077220
 80493d2:	68 10 02 00 00       	push   $0x210
 80493d7:	e9 c0 fb ff ff       	jmp    8048f9c <_init+0x30>

080493dc <__ctype_tolower_loc@plt>:
 80493dc:	ff 25 24 72 07 08    	jmp    *0x8077224
 80493e2:	68 18 02 00 00       	push   $0x218
 80493e7:	e9 b0 fb ff ff       	jmp    8048f9c <_init+0x30>

080493ec <getnameinfo@plt>:
 80493ec:	ff 25 28 72 07 08    	jmp    *0x8077228
 80493f2:	68 20 02 00 00       	push   $0x220
 80493f7:	e9 a0 fb ff ff       	jmp    8048f9c <_init+0x30>

080493fc <strcat@plt>:
 80493fc:	ff 25 2c 72 07 08    	jmp    *0x807722c
 8049402:	68 28 02 00 00       	push   $0x228
 8049407:	e9 90 fb ff ff       	jmp    8048f9c <_init+0x30>

0804940c <log@plt>:
 804940c:	ff 25 30 72 07 08    	jmp    *0x8077230
 8049412:	68 30 02 00 00       	push   $0x230
 8049417:	e9 80 fb ff ff       	jmp    8048f9c <_init+0x30>

0804941c <puts@plt>:
 804941c:	ff 25 34 72 07 08    	jmp    *0x8077234
 8049422:	68 38 02 00 00       	push   $0x238
 8049427:	e9 70 fb ff ff       	jmp    8048f9c <_init+0x30>

0804942c <fork@plt>:
 804942c:	ff 25 38 72 07 08    	jmp    *0x8077238
 8049432:	68 40 02 00 00       	push   $0x240
 8049437:	e9 60 fb ff ff       	jmp    8048f9c <_init+0x30>

0804943c <setsockopt@plt>:
 804943c:	ff 25 3c 72 07 08    	jmp    *0x807723c
 8049442:	68 48 02 00 00       	push   $0x248
 8049447:	e9 50 fb ff ff       	jmp    8048f9c <_init+0x30>

0804944c <sscanf@plt>:
 804944c:	ff 25 40 72 07 08    	jmp    *0x8077240
 8049452:	68 50 02 00 00       	push   $0x250
 8049457:	e9 40 fb ff ff       	jmp    8048f9c <_init+0x30>

0804945c <strncmp@plt>:
 804945c:	ff 25 44 72 07 08    	jmp    *0x8077244
 8049462:	68 58 02 00 00       	push   $0x258
 8049467:	e9 30 fb ff ff       	jmp    8048f9c <_init+0x30>

0804946c <vfprintf@plt>:
 804946c:	ff 25 48 72 07 08    	jmp    *0x8077248
 8049472:	68 60 02 00 00       	push   $0x260
 8049477:	e9 20 fb ff ff       	jmp    8048f9c <_init+0x30>

0804947c <strpbrk@plt>:
 804947c:	ff 25 4c 72 07 08    	jmp    *0x807724c
 8049482:	68 68 02 00 00       	push   $0x268
 8049487:	e9 10 fb ff ff       	jmp    8048f9c <_init+0x30>

0804948c <getsockopt@plt>:
 804948c:	ff 25 50 72 07 08    	jmp    *0x8077250
 8049492:	68 70 02 00 00       	push   $0x270
 8049497:	e9 00 fb ff ff       	jmp    8048f9c <_init+0x30>

0804949c <snprintf@plt>:
 804949c:	ff 25 54 72 07 08    	jmp    *0x8077254
 80494a2:	68 78 02 00 00       	push   $0x278
 80494a7:	e9 f0 fa ff ff       	jmp    8048f9c <_init+0x30>

080494ac <strcspn@plt>:
 80494ac:	ff 25 58 72 07 08    	jmp    *0x8077258
 80494b2:	68 80 02 00 00       	push   $0x280
 80494b7:	e9 e0 fa ff ff       	jmp    8048f9c <_init+0x30>

080494bc <strdup@plt>:
 80494bc:	ff 25 5c 72 07 08    	jmp    *0x807725c
 80494c2:	68 88 02 00 00       	push   $0x288
 80494c7:	e9 d0 fa ff ff       	jmp    8048f9c <_init+0x30>

080494cc <gethostbyname@plt>:
 80494cc:	ff 25 60 72 07 08    	jmp    *0x8077260
 80494d2:	68 90 02 00 00       	push   $0x290
 80494d7:	e9 c0 fa ff ff       	jmp    8048f9c <_init+0x30>

080494dc <getpwnam@plt>:
 80494dc:	ff 25 64 72 07 08    	jmp    *0x8077264
 80494e2:	68 98 02 00 00       	push   $0x298
 80494e7:	e9 b0 fa ff ff       	jmp    8048f9c <_init+0x30>

080494ec <strcmp@plt>:
 80494ec:	ff 25 68 72 07 08    	jmp    *0x8077268
 80494f2:	68 a0 02 00 00       	push   $0x2a0
 80494f7:	e9 a0 fa ff ff       	jmp    8048f9c <_init+0x30>

080494fc <getservbyname@plt>:
 80494fc:	ff 25 6c 72 07 08    	jmp    *0x807726c
 8049502:	68 a8 02 00 00       	push   $0x2a8
 8049507:	e9 90 fa ff ff       	jmp    8048f9c <_init+0x30>

0804950c <exit@plt>:
 804950c:	ff 25 70 72 07 08    	jmp    *0x8077270
 8049512:	68 b0 02 00 00       	push   $0x2b0
 8049517:	e9 80 fa ff ff       	jmp    8048f9c <_init+0x30>

Disassembly of section .text:

08049520 <_start>:
 8049520:	31 ed                	xor    %ebp,%ebp
 8049522:	5e                   	pop    %esi
 8049523:	89 e1                	mov    %esp,%ecx
 8049525:	83 e4 f0             	and    $0xfffffff0,%esp
 8049528:	50                   	push   %eax
 8049529:	54                   	push   %esp
 804952a:	52                   	push   %edx
 804952b:	68 10 64 06 08       	push   $0x8066410
 8049530:	68 20 64 06 08       	push   $0x8066420
 8049535:	51                   	push   %ecx
 8049536:	56                   	push   %esi
 8049537:	68 d4 95 04 08       	push   $0x80495d4
 804953c:	e8 fb fb ff ff       	call   804913c <__libc_start_main@plt>
 8049541:	f4                   	hlt    
 8049542:	90                   	nop    
 8049543:	90                   	nop    
 8049544:	90                   	nop    
 8049545:	90                   	nop    
 8049546:	90                   	nop    
 8049547:	90                   	nop    
 8049548:	90                   	nop    
 8049549:	90                   	nop    
 804954a:	90                   	nop    
 804954b:	90                   	nop    
 804954c:	90                   	nop    
 804954d:	90                   	nop    
 804954e:	90                   	nop    
 804954f:	90                   	nop    

08049550 <__do_global_dtors_aux>:
 8049550:	55                   	push   %ebp
 8049551:	89 e5                	mov    %esp,%ebp
 8049553:	53                   	push   %ebx
 8049554:	83 ec 04             	sub    $0x4,%esp
 8049557:	80 3d 2c 97 07 08 00 	cmpb   $0x0,0x807972c
 804955e:	75 40                	jne    80495a0 <__do_global_dtors_aux+0x50>
 8049560:	8b 15 30 97 07 08    	mov    0x8079730,%edx
 8049566:	b8 30 70 07 08       	mov    $0x8077030,%eax
 804956b:	2d 2c 70 07 08       	sub    $0x807702c,%eax
 8049570:	c1 f8 02             	sar    $0x2,%eax
 8049573:	8d 58 ff             	lea    -0x1(%eax),%ebx
 8049576:	39 da                	cmp    %ebx,%edx
 8049578:	73 1f                	jae    8049599 <__do_global_dtors_aux+0x49>
 804957a:	8d b6 00 00 00 00    	lea    0x0(%esi),%esi
 8049580:	8d 42 01             	lea    0x1(%edx),%eax
 8049583:	a3 30 97 07 08       	mov    %eax,0x8079730
 8049588:	ff 14 85 2c 70 07 08 	call   *0x807702c(,%eax,4)
 804958f:	8b 15 30 97 07 08    	mov    0x8079730,%edx
 8049595:	39 da                	cmp    %ebx,%edx
 8049597:	72 e7                	jb     8049580 <__do_global_dtors_aux+0x30>
 8049599:	c6 05 2c 97 07 08 01 	movb   $0x1,0x807972c
 80495a0:	83 c4 04             	add    $0x4,%esp
 80495a3:	5b                   	pop    %ebx
 80495a4:	5d                   	pop    %ebp
 80495a5:	c3                   	ret    
 80495a6:	8d 76 00             	lea    0x0(%esi),%esi
 80495a9:	8d bc 27 00 00 00 00 	lea    0x0(%edi,%eiz,1),%edi

080495b0 <frame_dummy>:
 80495b0:	55                   	push   %ebp
 80495b1:	89 e5                	mov    %esp,%ebp
 80495b3:	83 ec 08             	sub    $0x8,%esp
 80495b6:	a1 34 70 07 08       	mov    0x8077034,%eax
 80495bb:	85 c0                	test   %eax,%eax
 80495bd:	74 12                	je     80495d1 <frame_dummy+0x21>
 80495bf:	b8 00 00 00 00       	mov    $0x0,%eax
 80495c4:	85 c0                	test   %eax,%eax
 80495c6:	74 09                	je     80495d1 <frame_dummy+0x21>
 80495c8:	c7 04 24 34 70 07 08 	movl   $0x8077034,(%esp)
 80495cf:	ff d0                	call   *%eax
 80495d1:	c9                   	leave  
 80495d2:	c3                   	ret    
 80495d3:	90                   	nop    

080495d4 <main>:
 80495d4:	8d 4c 24 04          	lea    0x4(%esp),%ecx
 80495d8:	83 e4 f0             	and    $0xfffffff0,%esp
 80495db:	ff 71 fc             	pushl  -0x4(%ecx)
 80495de:	55                   	push   %ebp
 80495df:	89 e5                	mov    %esp,%ebp
 80495e1:	57                   	push   %edi
 80495e2:	56                   	push   %esi
 80495e3:	53                   	push   %ebx
 80495e4:	51                   	push   %ecx
 80495e5:	83 ec 08             	sub    $0x8,%esp
 80495e8:	8b 39                	mov    (%ecx),%edi
 80495ea:	8b 71 04             	mov    0x4(%ecx),%esi
 80495ed:	85 ff                	test   %edi,%edi
 80495ef:	75 17                	jne    8049608 <main+0x34>
 80495f1:	51                   	push   %ecx
 80495f2:	51                   	push   %ecx
 80495f3:	ff 35 14 97 07 08    	pushl  0x8079714
 80495f9:	68 d4 64 06 08       	push   $0x80664d4
 80495fe:	e8 a9 f9 ff ff       	call   8048fac <fputs@plt>
 8049603:	e9 bb 00 00 00       	jmp    80496c3 <main+0xef>
 8049608:	83 ec 0c             	sub    $0xc,%esp
 804960b:	ff 36                	pushl  (%esi)
 804960d:	e8 aa fc ff ff       	call   80492bc <__xpg_basename@plt>
 8049612:	89 c3                	mov    %eax,%ebx
 8049614:	58                   	pop    %eax
 8049615:	5a                   	pop    %edx
 8049616:	68 e0 64 06 08       	push   $0x80664e0
 804961b:	53                   	push   %ebx
 804961c:	e8 cb fe ff ff       	call   80494ec <strcmp@plt>
 8049621:	83 c4 10             	add    $0x10,%esp
 8049624:	85 c0                	test   %eax,%eax
 8049626:	74 14                	je     804963c <main+0x68>
 8049628:	50                   	push   %eax
 8049629:	50                   	push   %eax
 804962a:	68 e9 64 06 08       	push   $0x80664e9
 804962f:	53                   	push   %ebx
 8049630:	e8 b7 fe ff ff       	call   80494ec <strcmp@plt>
 8049635:	83 c4 10             	add    $0x10,%esp
 8049638:	85 c0                	test   %eax,%eax
 804963a:	75 0b                	jne    8049647 <main+0x73>
 804963c:	50                   	push   %eax
 804963d:	50                   	push   %eax
 804963e:	56                   	push   %esi
 804963f:	57                   	push   %edi
 8049640:	e8 f7 20 00 00       	call   804b73c <iptables_main>
 8049645:	eb 5b                	jmp    80496a2 <main+0xce>
 8049647:	50                   	push   %eax
 8049648:	50                   	push   %eax
 8049649:	68 f9 64 06 08       	push   $0x80664f9
 804964e:	53                   	push   %ebx
 804964f:	e8 98 fe ff ff       	call   80494ec <strcmp@plt>
 8049654:	83 c4 10             	add    $0x10,%esp
 8049657:	85 c0                	test   %eax,%eax
 8049659:	75 0b                	jne    8049666 <main+0x92>
 804965b:	50                   	push   %eax
 804965c:	50                   	push   %eax
 804965d:	56                   	push   %esi
 804965e:	57                   	push   %edi
 804965f:	e8 ca 02 00 00       	call   804992e <iptables_save_main>
 8049664:	eb 3c                	jmp    80496a2 <main+0xce>
 8049666:	50                   	push   %eax
 8049667:	50                   	push   %eax
 8049668:	68 07 65 06 08       	push   $0x8066507
 804966d:	53                   	push   %ebx
 804966e:	e8 79 fe ff ff       	call   80494ec <strcmp@plt>
 8049673:	83 c4 10             	add    $0x10,%esp
 8049676:	85 c0                	test   %eax,%eax
 8049678:	75 0b                	jne    8049685 <main+0xb1>
 804967a:	53                   	push   %ebx
 804967b:	53                   	push   %ebx
 804967c:	56                   	push   %esi
 804967d:	57                   	push   %edi
 804967e:	e8 05 04 00 00       	call   8049a88 <iptables_restore_main>
 8049683:	eb 1d                	jmp    80496a2 <main+0xce>
 8049685:	51                   	push   %ecx
 8049686:	51                   	push   %ecx
 8049687:	68 18 65 06 08       	push   $0x8066518
 804968c:	53                   	push   %ebx
 804968d:	e8 5a fe ff ff       	call   80494ec <strcmp@plt>
 8049692:	83 c4 10             	add    $0x10,%esp
 8049695:	85 c0                	test   %eax,%eax
 8049697:	75 18                	jne    80496b1 <main+0xdd>
 8049699:	52                   	push   %edx
 804969a:	52                   	push   %edx
 804969b:	56                   	push   %esi
 804969c:	57                   	push   %edi
 804969d:	e8 b3 16 00 00       	call   804ad55 <iptables_xml_main>
 80496a2:	83 c4 10             	add    $0x10,%esp
 80496a5:	8d 65 f0             	lea    -0x10(%ebp),%esp
 80496a8:	59                   	pop    %ecx
 80496a9:	5b                   	pop    %ebx
 80496aa:	5e                   	pop    %esi
 80496ab:	5f                   	pop    %edi
 80496ac:	5d                   	pop    %ebp
 80496ad:	8d 61 fc             	lea    -0x4(%ecx),%esp
 80496b0:	c3                   	ret    
 80496b1:	50                   	push   %eax
 80496b2:	53                   	push   %ebx
 80496b3:	68 25 65 06 08       	push   $0x8066525
 80496b8:	ff 35 14 97 07 08    	pushl  0x8079714
 80496be:	e8 99 fc ff ff       	call   804935c <fprintf@plt>
 80496c3:	c7 04 24 01 00 00 00 	movl   $0x1,(%esp)
 80496ca:	e8 3d fe ff ff       	call   804950c <exit@plt>
 80496cf:	90                   	nop    

080496d0 <do_output>:
 80496d0:	55                   	push   %ebp
 80496d1:	89 e5                	mov    %esp,%ebp
 80496d3:	57                   	push   %edi
 80496d4:	56                   	push   %esi
 80496d5:	53                   	push   %ebx
 80496d6:	83 ec 4c             	sub    $0x4c,%esp
 80496d9:	8b 5d 08             	mov    0x8(%ebp),%ebx
 80496dc:	85 db                	test   %ebx,%ebx
 80496de:	0f 85 86 00 00 00    	jne    804976a <do_output+0x9a>
 80496e4:	50                   	push   %eax
 80496e5:	b3 01                	mov    $0x1,%bl
 80496e7:	50                   	push   %eax
 80496e8:	68 f4 0c 07 08       	push   $0x8070cf4
 80496ed:	68 5d 65 06 08       	push   $0x806655d
 80496f2:	e8 25 fa ff ff       	call   804911c <fopen64@plt>
 80496f7:	83 c4 10             	add    $0x10,%esp
 80496fa:	85 c0                	test   %eax,%eax
 80496fc:	89 c6                	mov    %eax,%esi
 80496fe:	75 42                	jne    8049742 <do_output+0x72>
 8049700:	e9 1f 02 00 00       	jmp    8049924 <do_output+0x254>
 8049705:	8b 7d ac             	mov    -0x54(%ebp),%edi
 8049708:	31 c0                	xor    %eax,%eax
 804970a:	83 c9 ff             	or     $0xffffffff,%ecx
 804970d:	f2 ae                	repnz scas %es:(%edi),%al
 804970f:	f7 d1                	not    %ecx
 8049711:	8d 41 fe             	lea    -0x2(%ecx),%eax
 8049714:	80 7c 05 bf 0a       	cmpb   $0xa,-0x41(%ebp,%eax,1)
 8049719:	74 0f                	je     804972a <do_output+0x5a>
 804971b:	50                   	push   %eax
 804971c:	8d 45 bf             	lea    -0x41(%ebp),%eax
 804971f:	50                   	push   %eax
 8049720:	68 77 65 06 08       	push   $0x8066577
 8049725:	e9 f0 01 00 00       	jmp    804991a <do_output+0x24a>
 804972a:	83 ec 0c             	sub    $0xc,%esp
 804972d:	8d 7d bf             	lea    -0x41(%ebp),%edi
 8049730:	57                   	push   %edi
 8049731:	c6 44 05 bf 00       	movb   $0x0,-0x41(%ebp,%eax,1)
 8049736:	e8 95 ff ff ff       	call   80496d0 <do_output>
 804973b:	83 c4 10             	add    $0x10,%esp
 804973e:	21 c3                	and    %eax,%ebx
 8049740:	eb 06                	jmp    8049748 <do_output+0x78>
 8049742:	8d 45 bf             	lea    -0x41(%ebp),%eax
 8049745:	89 45 ac             	mov    %eax,-0x54(%ebp)
 8049748:	50                   	push   %eax
 8049749:	56                   	push   %esi
 804974a:	6a 21                	push   $0x21
 804974c:	8d 7d bf             	lea    -0x41(%ebp),%edi
 804974f:	57                   	push   %edi
 8049750:	e8 a7 f9 ff ff       	call   80490fc <fgets@plt>
 8049755:	83 c4 10             	add    $0x10,%esp
 8049758:	85 c0                	test   %eax,%eax
 804975a:	75 a9                	jne    8049705 <do_output+0x35>
 804975c:	83 ec 0c             	sub    $0xc,%esp
 804975f:	56                   	push   %esi
 8049760:	e8 f7 fa ff ff       	call   804925c <fclose@plt>
 8049765:	e9 a4 01 00 00       	jmp    804990e <do_output+0x23e>
 804976a:	83 ec 0c             	sub    $0xc,%esp
 804976d:	53                   	push   %ebx
 804976e:	e8 5a 8a 00 00       	call   80521cd <iptc_init>
 8049773:	83 c4 10             	add    $0x10,%esp
 8049776:	85 c0                	test   %eax,%eax
 8049778:	89 c7                	mov    %eax,%edi
 804977a:	75 44                	jne    80497c0 <do_output+0xf0>
 804977c:	50                   	push   %eax
 804977d:	50                   	push   %eax
 804977e:	6a 00                	push   $0x0
 8049780:	ff 35 9c 0e 0c 08    	pushl  0x80c0e9c
 8049786:	e8 2c 5e 00 00       	call   804f5b7 <xtables_load_ko>
 804978b:	89 1c 24             	mov    %ebx,(%esp)
 804978e:	e8 3a 8a 00 00       	call   80521cd <iptc_init>
 8049793:	83 c4 10             	add    $0x10,%esp
 8049796:	85 c0                	test   %eax,%eax
 8049798:	89 c7                	mov    %eax,%edi
 804979a:	75 24                	jne    80497c0 <do_output+0xf0>
 804979c:	a1 6c 09 0c 08       	mov    0x80c096c,%eax
 80497a1:	8b 58 14             	mov    0x14(%eax),%ebx
 80497a4:	e8 23 f8 ff ff       	call   8048fcc <__errno_location@plt>
 80497a9:	83 ec 0c             	sub    $0xc,%esp
 80497ac:	ff 30                	pushl  (%eax)
 80497ae:	e8 ca 6a 00 00       	call   805027d <iptc_strerror>
 80497b3:	83 c4 0c             	add    $0xc,%esp
 80497b6:	50                   	push   %eax
 80497b7:	68 94 65 06 08       	push   $0x8066594
 80497bc:	6a 01                	push   $0x1
 80497be:	ff d3                	call   *%ebx
 80497c0:	83 3d 34 97 07 08 00 	cmpl   $0x0,0x8079734
 80497c7:	0f 85 46 01 00 00    	jne    8049913 <do_output+0x243>
 80497cd:	83 ec 0c             	sub    $0xc,%esp
 80497d0:	6a 00                	push   $0x0
 80497d2:	e8 95 fb ff ff       	call   804936c <time@plt>
 80497d7:	89 45 f0             	mov    %eax,-0x10(%ebp)
 80497da:	8d 45 f0             	lea    -0x10(%ebp),%eax
 80497dd:	89 04 24             	mov    %eax,(%esp)
 80497e0:	e8 07 fb ff ff       	call   80492ec <ctime@plt>
 80497e5:	83 c4 0c             	add    $0xc,%esp
 80497e8:	50                   	push   %eax
 80497e9:	68 ab 65 06 08       	push   $0x80665ab
 80497ee:	68 b1 65 06 08       	push   $0x80665b1
 80497f3:	e8 e4 fa ff ff       	call   80492dc <printf@plt>
 80497f8:	5e                   	pop    %esi
 80497f9:	58                   	pop    %eax
 80497fa:	8d 75 e0             	lea    -0x20(%ebp),%esi
 80497fd:	53                   	push   %ebx
 80497fe:	68 d8 65 06 08       	push   $0x80665d8
 8049803:	e8 d4 fa ff ff       	call   80492dc <printf@plt>
 8049808:	89 3c 24             	mov    %edi,(%esp)
 804980b:	e8 bc 69 00 00       	call   80501cc <iptc_first_chain>
 8049810:	83 c4 10             	add    $0x10,%esp
 8049813:	89 c3                	mov    %eax,%ebx
 8049815:	eb 6d                	jmp    8049884 <do_output+0x1b4>
 8049817:	51                   	push   %ecx
 8049818:	51                   	push   %ecx
 8049819:	53                   	push   %ebx
 804981a:	68 dd 65 06 08       	push   $0x80665dd
 804981f:	e8 b8 fa ff ff       	call   80492dc <printf@plt>
 8049824:	58                   	pop    %eax
 8049825:	5a                   	pop    %edx
 8049826:	57                   	push   %edi
 8049827:	53                   	push   %ebx
 8049828:	e8 e2 77 00 00       	call   805100f <iptc_builtin>
 804982d:	83 c4 10             	add    $0x10,%esp
 8049830:	85 c0                	test   %eax,%eax
 8049832:	74 32                	je     8049866 <do_output+0x196>
 8049834:	50                   	push   %eax
 8049835:	57                   	push   %edi
 8049836:	56                   	push   %esi
 8049837:	53                   	push   %ebx
 8049838:	e8 5a 7b 00 00       	call   8051397 <iptc_get_policy>
 804983d:	5a                   	pop    %edx
 804983e:	59                   	pop    %ecx
 804983f:	50                   	push   %eax
 8049840:	68 e4 eb 06 08       	push   $0x806ebe4
 8049845:	e8 92 fa ff ff       	call   80492dc <printf@plt>
 804984a:	5b                   	pop    %ebx
 804984b:	ff 75 ec             	pushl  -0x14(%ebp)
 804984e:	ff 75 e8             	pushl  -0x18(%ebp)
 8049851:	ff 75 e4             	pushl  -0x1c(%ebp)
 8049854:	ff 75 e0             	pushl  -0x20(%ebp)
 8049857:	68 e2 65 06 08       	push   $0x80665e2
 804985c:	e8 7b fa ff ff       	call   80492dc <printf@plt>
 8049861:	83 c4 20             	add    $0x20,%esp
 8049864:	eb 10                	jmp    8049876 <do_output+0x1a6>
 8049866:	83 ec 0c             	sub    $0xc,%esp
 8049869:	68 ef 65 06 08       	push   $0x80665ef
 804986e:	e8 a9 fb ff ff       	call   804941c <puts@plt>
 8049873:	83 c4 10             	add    $0x10,%esp
 8049876:	83 ec 0c             	sub    $0xc,%esp
 8049879:	57                   	push   %edi
 804987a:	e8 85 69 00 00       	call   8050204 <iptc_next_chain>
 804987f:	83 c4 10             	add    $0x10,%esp
 8049882:	89 c3                	mov    %eax,%ebx
 8049884:	85 db                	test   %ebx,%ebx
 8049886:	75 8f                	jne    8049817 <do_output+0x147>
 8049888:	83 ec 0c             	sub    $0xc,%esp
 804988b:	57                   	push   %edi
 804988c:	e8 3b 69 00 00       	call   80501cc <iptc_first_chain>
 8049891:	eb 34                	jmp    80498c7 <do_output+0x1f7>
 8049893:	51                   	push   %ecx
 8049894:	51                   	push   %ecx
 8049895:	57                   	push   %edi
 8049896:	56                   	push   %esi
 8049897:	e8 ad 77 00 00       	call   8051049 <iptc_first_rule>
 804989c:	eb 17                	jmp    80498b5 <do_output+0x1e5>
 804989e:	ff 35 38 97 07 08    	pushl  0x8079738
 80498a4:	56                   	push   %esi
 80498a5:	57                   	push   %edi
 80498a6:	53                   	push   %ebx
 80498a7:	e8 63 2b 00 00       	call   804c40f <print_rule>
 80498ac:	58                   	pop    %eax
 80498ad:	5a                   	pop    %edx
 80498ae:	57                   	push   %edi
 80498af:	53                   	push   %ebx
 80498b0:	e8 84 69 00 00       	call   8050239 <iptc_next_rule>
 80498b5:	83 c4 10             	add    $0x10,%esp
 80498b8:	85 c0                	test   %eax,%eax
 80498ba:	89 c3                	mov    %eax,%ebx
 80498bc:	75 e0                	jne    804989e <do_output+0x1ce>
 80498be:	83 ec 0c             	sub    $0xc,%esp
 80498c1:	57                   	push   %edi
 80498c2:	e8 3d 69 00 00       	call   8050204 <iptc_next_chain>
 80498c7:	83 c4 10             	add    $0x10,%esp
 80498ca:	85 c0                	test   %eax,%eax
 80498cc:	89 c6                	mov    %eax,%esi
 80498ce:	75 c3                	jne    8049893 <do_output+0x1c3>
 80498d0:	83 ec 0c             	sub    $0xc,%esp
 80498d3:	bb 01 00 00 00       	mov    $0x1,%ebx
 80498d8:	6a 00                	push   $0x0
 80498da:	e8 8d fa ff ff       	call   804936c <time@plt>
 80498df:	c7 04 24 f7 65 06 08 	movl   $0x80665f7,(%esp)
 80498e6:	89 45 f0             	mov    %eax,-0x10(%ebp)
 80498e9:	e8 2e fb ff ff       	call   804941c <puts@plt>
 80498ee:	8d 45 f0             	lea    -0x10(%ebp),%eax
 80498f1:	89 04 24             	mov    %eax,(%esp)
 80498f4:	e8 f3 f9 ff ff       	call   80492ec <ctime@plt>
 80498f9:	5a                   	pop    %edx
 80498fa:	59                   	pop    %ecx
 80498fb:	50                   	push   %eax
 80498fc:	68 fe 65 06 08       	push   $0x80665fe
 8049901:	e8 d6 f9 ff ff       	call   80492dc <printf@plt>
 8049906:	89 3c 24             	mov    %edi,(%esp)
 8049909:	e8 2a 88 00 00       	call   8052138 <iptc_free>
 804990e:	83 c4 10             	add    $0x10,%esp
 8049911:	eb 11                	jmp    8049924 <do_output+0x254>
 8049913:	50                   	push   %eax
 8049914:	50                   	push   %eax
 8049915:	68 10 66 06 08       	push   $0x8066610
 804991a:	a1 6c 09 0c 08       	mov    0x80c096c,%eax
 804991f:	6a 01                	push   $0x1
 8049921:	ff 50 14             	call   *0x14(%eax)
 8049924:	8d 65 f4             	lea    -0xc(%ebp),%esp
 8049927:	89 d8                	mov    %ebx,%eax
 8049929:	5b                   	pop    %ebx
 804992a:	5e                   	pop    %esi
 804992b:	5f                   	pop    %edi
 804992c:	5d                   	pop    %ebp
 804992d:	c3                   	ret    

0804992e <iptables_save_main>:
 804992e:	55                   	push   %ebp
 804992f:	89 e5                	mov    %esp,%ebp
 8049931:	57                   	push   %edi
 8049932:	56                   	push   %esi
 8049933:	53                   	push   %ebx
 8049934:	83 ec 14             	sub    $0x14,%esp
 8049937:	8b 75 08             	mov    0x8(%ebp),%esi
 804993a:	6a 02                	push   $0x2
 804993c:	8b 7d 0c             	mov    0xc(%ebp),%edi
 804993f:	68 d4 72 07 08       	push   $0x80772d4
 8049944:	c7 05 d8 72 07 08 f9 	movl   $0x80664f9,0x80772d8
 804994b:	64 06 08 
 804994e:	e8 90 67 00 00       	call   80500e3 <xtables_init_all>
 8049953:	83 c4 10             	add    $0x10,%esp
 8049956:	85 c0                	test   %eax,%eax
 8049958:	79 21                	jns    804997b <iptables_save_main+0x4d>
 804995a:	ff 35 dc 72 07 08    	pushl  0x80772dc
 8049960:	ff 35 d8 72 07 08    	pushl  0x80772d8
 8049966:	68 1c 66 06 08       	push   $0x806661c
 804996b:	ff 35 14 97 07 08    	pushl  0x8079714
 8049971:	e8 e6 f9 ff ff       	call   804935c <fprintf@plt>
 8049976:	e9 a1 00 00 00       	jmp    8049a1c <iptables_save_main+0xee>
 804997b:	e8 48 8d 00 00       	call   80526c8 <init_extensions>
 8049980:	31 db                	xor    %ebx,%ebx
 8049982:	eb 60                	jmp    80499e4 <iptables_save_main+0xb6>
 8049984:	83 f8 63             	cmp    $0x63,%eax
 8049987:	74 26                	je     80499af <iptables_save_main+0x81>
 8049989:	7f 0c                	jg     8049997 <iptables_save_main+0x69>
 804998b:	83 f8 4d             	cmp    $0x4d,%eax
 804998e:	74 33                	je     80499c3 <iptables_save_main+0x95>
 8049990:	83 f8 62             	cmp    $0x62,%eax
 8049993:	75 4f                	jne    80499e4 <iptables_save_main+0xb6>
 8049995:	eb 0c                	jmp    80499a3 <iptables_save_main+0x75>
 8049997:	83 f8 64             	cmp    $0x64,%eax
 804999a:	74 33                	je     80499cf <iptables_save_main+0xa1>
 804999c:	83 f8 74             	cmp    $0x74,%eax
 804999f:	75 43                	jne    80499e4 <iptables_save_main+0xb6>
 80499a1:	eb 18                	jmp    80499bb <iptables_save_main+0x8d>
 80499a3:	c7 05 34 97 07 08 01 	movl   $0x1,0x8079734
 80499aa:	00 00 00 
 80499ad:	eb 35                	jmp    80499e4 <iptables_save_main+0xb6>
 80499af:	c7 05 38 97 07 08 01 	movl   $0x1,0x8079738
 80499b6:	00 00 00 
 80499b9:	eb 29                	jmp    80499e4 <iptables_save_main+0xb6>
 80499bb:	8b 1d 28 97 07 08    	mov    0x8079728,%ebx
 80499c1:	eb 21                	jmp    80499e4 <iptables_save_main+0xb6>
 80499c3:	a1 28 97 07 08       	mov    0x8079728,%eax
 80499c8:	a3 9c 0e 0c 08       	mov    %eax,0x80c0e9c
 80499cd:	eb 15                	jmp    80499e4 <iptables_save_main+0xb6>
 80499cf:	83 ec 0c             	sub    $0xc,%esp
 80499d2:	53                   	push   %ebx
 80499d3:	e8 f8 fc ff ff       	call   80496d0 <do_output>
 80499d8:	c7 04 24 00 00 00 00 	movl   $0x0,(%esp)
 80499df:	e8 28 fb ff ff       	call   804950c <exit@plt>
 80499e4:	83 ec 0c             	sub    $0xc,%esp
 80499e7:	6a 00                	push   $0x0
 80499e9:	68 7c 66 06 08       	push   $0x806667c
 80499ee:	68 40 66 06 08       	push   $0x8066640
 80499f3:	57                   	push   %edi
 80499f4:	56                   	push   %esi
 80499f5:	e8 22 f8 ff ff       	call   804921c <getopt_long@plt>
 80499fa:	83 c4 20             	add    $0x20,%esp
 80499fd:	83 f8 ff             	cmp    $0xffffffff,%eax
 8049a00:	75 82                	jne    8049984 <iptables_save_main+0x56>
 8049a02:	39 35 10 97 07 08    	cmp    %esi,0x8079710
 8049a08:	7d 1b                	jge    8049a25 <iptables_save_main+0xf7>
 8049a0a:	50                   	push   %eax
 8049a0b:	50                   	push   %eax
 8049a0c:	ff 35 14 97 07 08    	pushl  0x8079714
 8049a12:	68 46 66 06 08       	push   $0x8066646
 8049a17:	e8 90 f5 ff ff       	call   8048fac <fputs@plt>
 8049a1c:	c7 04 24 01 00 00 00 	movl   $0x1,(%esp)
 8049a23:	eb ba                	jmp    80499df <iptables_save_main+0xb1>
 8049a25:	83 ec 0c             	sub    $0xc,%esp
 8049a28:	53                   	push   %ebx
 8049a29:	e8 a2 fc ff ff       	call   80496d0 <do_output>
 8049a2e:	83 c4 10             	add    $0x10,%esp
 8049a31:	85 c0                	test   %eax,%eax
 8049a33:	0f 94 c0             	sete   %al
 8049a36:	0f b6 c0             	movzbl %al,%eax
 8049a39:	8d 65 f4             	lea    -0xc(%ebp),%esp
 8049a3c:	5b                   	pop    %ebx
 8049a3d:	5e                   	pop    %esi
 8049a3e:	5f                   	pop    %edi
 8049a3f:	5d                   	pop    %ebp
 8049a40:	c3                   	ret    
 8049a41:	90                   	nop    
 8049a42:	90                   	nop    
 8049a43:	90                   	nop    

08049a44 <add_argv>:
 8049a44:	55                   	push   %ebp
 8049a45:	89 c2                	mov    %eax,%edx
 8049a47:	89 e5                	mov    %esp,%ebp
 8049a49:	53                   	push   %ebx
 8049a4a:	83 ec 04             	sub    $0x4,%esp
 8049a4d:	85 c0                	test   %eax,%eax
 8049a4f:	74 30                	je     8049a81 <add_argv+0x3d>
 8049a51:	8b 1d 48 9b 07 08    	mov    0x8079b48,%ebx
 8049a57:	8d 43 01             	lea    0x1(%ebx),%eax
 8049a5a:	3d fe 00 00 00       	cmp    $0xfe,%eax
 8049a5f:	77 20                	ja     8049a81 <add_argv+0x3d>
 8049a61:	83 ec 0c             	sub    $0xc,%esp
 8049a64:	52                   	push   %edx
 8049a65:	e8 52 fa ff ff       	call   80494bc <strdup@plt>
 8049a6a:	83 c4 10             	add    $0x10,%esp
 8049a6d:	ff 05 48 9b 07 08    	incl   0x8079b48
 8049a73:	89 04 9d 4c 97 07 08 	mov    %eax,0x807974c(,%ebx,4)
 8049a7a:	b8 01 00 00 00       	mov    $0x1,%eax
 8049a7f:	eb 02                	jmp    8049a83 <add_argv+0x3f>
 8049a81:	31 c0                	xor    %eax,%eax
 8049a83:	8b 5d fc             	mov    -0x4(%ebp),%ebx
 8049a86:	c9                   	leave  
 8049a87:	c3                   	ret    

08049a88 <iptables_restore_main>:
 8049a88:	55                   	push   %ebp
 8049a89:	89 e5                	mov    %esp,%ebp
 8049a8b:	57                   	push   %edi
 8049a8c:	56                   	push   %esi
 8049a8d:	53                   	push   %ebx
 8049a8e:	81 ec 74 2c 00 00    	sub    $0x2c74,%esp
 8049a94:	8b 5d 08             	mov    0x8(%ebp),%ebx
 8049a97:	6a 02                	push   $0x2
 8049a99:	68 d4 72 07 08       	push   $0x80772d4
 8049a9e:	c7 45 ec 00 00 00 00 	movl   $0x0,-0x14(%ebp)
 8049aa5:	c7 05 d0 72 07 08 00 	movl   $0x0,0x80772d0
 8049aac:	00 00 00 
 8049aaf:	c7 05 d8 72 07 08 07 	movl   $0x8066507,0x80772d8
 8049ab6:	65 06 08 
 8049ab9:	e8 25 66 00 00       	call   80500e3 <xtables_init_all>
 8049abe:	83 c4 10             	add    $0x10,%esp
 8049ac1:	85 c0                	test   %eax,%eax
 8049ac3:	79 16                	jns    8049adb <iptables_restore_main+0x53>
 8049ac5:	ff 35 dc 72 07 08    	pushl  0x80772dc
 8049acb:	ff 35 d8 72 07 08    	pushl  0x80772d8
 8049ad1:	68 1c 66 06 08       	push   $0x806661c
 8049ad6:	e9 93 00 00 00       	jmp    8049b6e <iptables_restore_main+0xe6>
 8049adb:	e8 e8 8b 00 00       	call   80526c8 <init_extensions>
 8049ae0:	c7 85 94 d3 ff ff 00 	movl   $0x0,-0x2c6c(%ebp)
 8049ae7:	00 00 00 
 8049aea:	c7 85 98 d3 ff ff 00 	movl   $0x0,-0x2c68(%ebp)
 8049af1:	00 00 00 
 8049af4:	e9 ab 00 00 00       	jmp    8049ba4 <iptables_restore_main+0x11c>
 8049af9:	83 f8 63             	cmp    $0x63,%eax
 8049afc:	74 4d                	je     8049b4b <iptables_restore_main+0xc3>
 8049afe:	7f 19                	jg     8049b19 <iptables_restore_main+0x91>
 8049b00:	83 f8 54             	cmp    $0x54,%eax
 8049b03:	0f 84 90 00 00 00    	je     8049b99 <iptables_restore_main+0x111>
 8049b09:	83 f8 62             	cmp    $0x62,%eax
 8049b0c:	74 31                	je     8049b3f <iptables_restore_main+0xb7>
 8049b0e:	83 f8 4d             	cmp    $0x4d,%eax
 8049b11:	0f 85 8d 00 00 00    	jne    8049ba4 <iptables_restore_main+0x11c>
 8049b17:	eb 74                	jmp    8049b8d <iptables_restore_main+0x105>
 8049b19:	83 f8 6e             	cmp    $0x6e,%eax
 8049b1c:	74 63                	je     8049b81 <iptables_restore_main+0xf9>
 8049b1e:	7f 07                	jg     8049b27 <iptables_restore_main+0x9f>
 8049b20:	83 f8 68             	cmp    $0x68,%eax
 8049b23:	75 7f                	jne    8049ba4 <iptables_restore_main+0x11c>
 8049b25:	eb 3c                	jmp    8049b63 <iptables_restore_main+0xdb>
 8049b27:	83 f8 74             	cmp    $0x74,%eax
 8049b2a:	74 07                	je     8049b33 <iptables_restore_main+0xab>
 8049b2c:	83 f8 76             	cmp    $0x76,%eax
 8049b2f:	75 73                	jne    8049ba4 <iptables_restore_main+0x11c>
 8049b31:	eb 24                	jmp    8049b57 <iptables_restore_main+0xcf>
 8049b33:	c7 85 94 d3 ff ff 01 	movl   $0x1,-0x2c6c(%ebp)
 8049b3a:	00 00 00 
 8049b3d:	eb 65                	jmp    8049ba4 <iptables_restore_main+0x11c>
 8049b3f:	c7 05 3c 97 07 08 01 	movl   $0x1,0x807973c
 8049b46:	00 00 00 
 8049b49:	eb 59                	jmp    8049ba4 <iptables_restore_main+0x11c>
 8049b4b:	c7 05 40 97 07 08 01 	movl   $0x1,0x8079740
 8049b52:	00 00 00 
 8049b55:	eb 4d                	jmp    8049ba4 <iptables_restore_main+0x11c>
 8049b57:	c7 05 44 97 07 08 01 	movl   $0x1,0x8079744
 8049b5e:	00 00 00 
 8049b61:	eb 41                	jmp    8049ba4 <iptables_restore_main+0x11c>
 8049b63:	56                   	push   %esi
 8049b64:	68 07 65 06 08       	push   $0x8066507
 8049b69:	68 dc 66 06 08       	push   $0x80666dc
 8049b6e:	ff 35 14 97 07 08    	pushl  0x8079714
 8049b74:	e8 e3 f7 ff ff       	call   804935c <fprintf@plt>
 8049b79:	5b                   	pop    %ebx
 8049b7a:	6a 01                	push   $0x1
 8049b7c:	e8 8b f9 ff ff       	call   804950c <exit@plt>
 8049b81:	c7 05 48 97 07 08 01 	movl   $0x1,0x8079748
 8049b88:	00 00 00 
 8049b8b:	eb 17                	jmp    8049ba4 <iptables_restore_main+0x11c>
 8049b8d:	a1 28 97 07 08       	mov    0x8079728,%eax
 8049b92:	a3 9c 0e 0c 08       	mov    %eax,0x80c0e9c
 8049b97:	eb 0b                	jmp    8049ba4 <iptables_restore_main+0x11c>
 8049b99:	a1 28 97 07 08       	mov    0x8079728,%eax
 8049b9e:	89 85 98 d3 ff ff    	mov    %eax,-0x2c68(%ebp)
 8049ba4:	83 ec 0c             	sub    $0xc,%esp
 8049ba7:	6a 00                	push   $0x0
 8049ba9:	68 b0 69 06 08       	push   $0x80669b0
 8049bae:	68 a0 67 06 08       	push   $0x80667a0
 8049bb3:	ff 75 0c             	pushl  0xc(%ebp)
 8049bb6:	53                   	push   %ebx
 8049bb7:	e8 60 f6 ff ff       	call   804921c <getopt_long@plt>
 8049bbc:	83 c4 20             	add    $0x20,%esp
 8049bbf:	83 f8 ff             	cmp    $0xffffffff,%eax
 8049bc2:	0f 85 31 ff ff ff    	jne    8049af9 <iptables_restore_main+0x71>
 8049bc8:	8b 15 10 97 07 08    	mov    0x8079710,%edx
 8049bce:	8d 43 ff             	lea    -0x1(%ebx),%eax
 8049bd1:	39 c2                	cmp    %eax,%edx
 8049bd3:	75 52                	jne    8049c27 <iptables_restore_main+0x19f>
 8049bd5:	8b 45 0c             	mov    0xc(%ebp),%eax
 8049bd8:	51                   	push   %ecx
 8049bd9:	51                   	push   %ecx
 8049bda:	68 f4 0c 07 08       	push   $0x8070cf4
 8049bdf:	ff 34 90             	pushl  (%eax,%edx,4)
 8049be2:	e8 35 f5 ff ff       	call   804911c <fopen64@plt>
 8049be7:	83 c4 10             	add    $0x10,%esp
 8049bea:	85 c0                	test   %eax,%eax
 8049bec:	89 85 8c d3 ff ff    	mov    %eax,-0x2c74(%ebp)
 8049bf2:	75 59                	jne    8049c4d <iptables_restore_main+0x1c5>
 8049bf4:	e8 d3 f3 ff ff       	call   8048fcc <__errno_location@plt>
 8049bf9:	83 ec 0c             	sub    $0xc,%esp
 8049bfc:	ff 30                	pushl  (%eax)
 8049bfe:	e8 f9 f3 ff ff       	call   8048ffc <strerror@plt>
 8049c03:	8b 55 0c             	mov    0xc(%ebp),%edx
 8049c06:	50                   	push   %eax
 8049c07:	a1 10 97 07 08       	mov    0x8079710,%eax
 8049c0c:	ff 34 82             	pushl  (%edx,%eax,4)
 8049c0f:	68 ab 67 06 08       	push   $0x80667ab
 8049c14:	ff 35 14 97 07 08    	pushl  0x8079714
 8049c1a:	e8 3d f7 ff ff       	call   804935c <fprintf@plt>
 8049c1f:	83 c4 14             	add    $0x14,%esp
 8049c22:	e9 53 ff ff ff       	jmp    8049b7a <iptables_restore_main+0xf2>
 8049c27:	39 da                	cmp    %ebx,%edx
 8049c29:	7d 17                	jge    8049c42 <iptables_restore_main+0x1ba>
 8049c2b:	50                   	push   %eax
 8049c2c:	50                   	push   %eax
 8049c2d:	ff 35 14 97 07 08    	pushl  0x8079714
 8049c33:	68 46 66 06 08       	push   $0x8066646
 8049c38:	e8 6f f3 ff ff       	call   8048fac <fputs@plt>
 8049c3d:	e9 37 ff ff ff       	jmp    8049b79 <iptables_restore_main+0xf1>
 8049c42:	a1 18 97 07 08       	mov    0x8079718,%eax
 8049c47:	89 85 8c d3 ff ff    	mov    %eax,-0x2c74(%ebp)
 8049c4d:	c7 85 90 d3 ff ff 00 	movl   $0x0,-0x2c70(%ebp)
 8049c54:	00 00 00 
 8049c57:	e9 22 06 00 00       	jmp    804a27e <iptables_restore_main+0x7f6>
 8049c5c:	a1 d0 72 07 08       	mov    0x80772d0,%eax
 8049c61:	8a 9d a7 d3 ff ff    	mov    -0x2c59(%ebp),%bl
 8049c67:	8d 78 01             	lea    0x1(%eax),%edi
 8049c6a:	80 fb 0a             	cmp    $0xa,%bl
 8049c6d:	89 3d d0 72 07 08    	mov    %edi,0x80772d0
 8049c73:	0f 84 05 06 00 00    	je     804a27e <iptables_restore_main+0x7f6>
 8049c79:	80 fb 23             	cmp    $0x23,%bl
 8049c7c:	75 23                	jne    8049ca1 <iptables_restore_main+0x219>
 8049c7e:	83 3d 44 97 07 08 00 	cmpl   $0x0,0x8079744
 8049c85:	0f 84 f3 05 00 00    	je     804a27e <iptables_restore_main+0x7f6>
 8049c8b:	50                   	push   %eax
 8049c8c:	50                   	push   %eax
 8049c8d:	ff 35 20 97 07 08    	pushl  0x8079720
 8049c93:	56                   	push   %esi
 8049c94:	e8 13 f3 ff ff       	call   8048fac <fputs@plt>
 8049c99:	83 c4 10             	add    $0x10,%esp
 8049c9c:	e9 dd 05 00 00       	jmp    804a27e <iptables_restore_main+0x7f6>
 8049ca1:	50                   	push   %eax
 8049ca2:	50                   	push   %eax
 8049ca3:	68 be 67 06 08       	push   $0x80667be
 8049ca8:	56                   	push   %esi
 8049ca9:	e8 3e f8 ff ff       	call   80494ec <strcmp@plt>
 8049cae:	83 c4 10             	add    $0x10,%esp
 8049cb1:	8a 95 90 d3 ff ff    	mov    -0x2c70(%ebp),%dl
 8049cb7:	85 c0                	test   %eax,%eax
 8049cb9:	75 48                	jne    8049d03 <iptables_restore_main+0x27b>
 8049cbb:	84 d2                	test   %dl,%dl
 8049cbd:	74 44                	je     8049d03 <iptables_restore_main+0x27b>
 8049cbf:	83 bd 94 d3 ff ff 00 	cmpl   $0x0,-0x2c6c(%ebp)
 8049cc6:	74 0f                	je     8049cd7 <iptables_restore_main+0x24f>
 8049cc8:	c7 85 90 d3 ff ff 00 	movl   $0x0,-0x2c70(%ebp)
 8049ccf:	00 00 00 
 8049cd2:	e9 67 05 00 00       	jmp    804a23e <iptables_restore_main+0x7b6>
 8049cd7:	83 ec 0c             	sub    $0xc,%esp
 8049cda:	ff 75 ec             	pushl  -0x14(%ebp)
 8049cdd:	e8 8d 67 00 00       	call   805046f <iptc_commit>
 8049ce2:	89 c7                	mov    %eax,%edi
 8049ce4:	58                   	pop    %eax
 8049ce5:	ff 75 ec             	pushl  -0x14(%ebp)
 8049ce8:	e8 4b 84 00 00       	call   8052138 <iptc_free>
 8049ced:	c7 45 ec 00 00 00 00 	movl   $0x0,-0x14(%ebp)
 8049cf4:	c7 85 90 d3 ff ff 00 	movl   $0x0,-0x2c70(%ebp)
 8049cfb:	00 00 00 
 8049cfe:	e9 36 05 00 00       	jmp    804a239 <iptables_restore_main+0x7b1>
 8049d03:	80 fb 2a             	cmp    $0x2a,%bl
 8049d06:	0f 85 21 01 00 00    	jne    8049e2d <iptables_restore_main+0x3a5>
 8049d0c:	83 bd 90 d3 ff ff 00 	cmpl   $0x0,-0x2c70(%ebp)
 8049d13:	0f 85 f5 02 00 00    	jne    804a00e <iptables_restore_main+0x586>
 8049d19:	50                   	push   %eax
 8049d1a:	50                   	push   %eax
 8049d1b:	68 c6 67 06 08       	push   $0x80667c6
 8049d20:	8d 85 a8 d3 ff ff    	lea    -0x2c58(%ebp),%eax
 8049d26:	50                   	push   %eax
 8049d27:	e8 70 f6 ff ff       	call   804939c <strtok@plt>
 8049d2c:	83 c4 10             	add    $0x10,%esp
 8049d2f:	85 c0                	test   %eax,%eax
 8049d31:	89 c3                	mov    %eax,%ebx
 8049d33:	75 16                	jne    8049d4b <iptables_restore_main+0x2c3>
 8049d35:	ff 35 d0 72 07 08    	pushl  0x80772d0
 8049d3b:	ff 35 d8 72 07 08    	pushl  0x80772d8
 8049d41:	68 ca 67 06 08       	push   $0x80667ca
 8049d46:	e9 83 04 00 00       	jmp    804a1ce <iptables_restore_main+0x746>
 8049d4b:	50                   	push   %eax
 8049d4c:	6a 20                	push   $0x20
 8049d4e:	53                   	push   %ebx
 8049d4f:	8d 45 a7             	lea    -0x59(%ebp),%eax
 8049d52:	50                   	push   %eax
 8049d53:	e8 84 f3 ff ff       	call   80490dc <strncpy@plt>
 8049d58:	83 c4 10             	add    $0x10,%esp
 8049d5b:	83 bd 98 d3 ff ff 00 	cmpl   $0x0,-0x2c68(%ebp)
 8049d62:	c6 45 c7 00          	movb   $0x0,-0x39(%ebp)
 8049d66:	74 19                	je     8049d81 <iptables_restore_main+0x2f9>
 8049d68:	57                   	push   %edi
 8049d69:	57                   	push   %edi
 8049d6a:	53                   	push   %ebx
 8049d6b:	ff b5 98 d3 ff ff    	pushl  -0x2c68(%ebp)
 8049d71:	e8 76 f7 ff ff       	call   80494ec <strcmp@plt>
 8049d76:	83 c4 10             	add    $0x10,%esp
 8049d79:	85 c0                	test   %eax,%eax
 8049d7b:	0f 85 fd 04 00 00    	jne    804a27e <iptables_restore_main+0x7f6>
 8049d81:	8b 45 ec             	mov    -0x14(%ebp),%eax
 8049d84:	85 c0                	test   %eax,%eax
 8049d86:	74 0c                	je     8049d94 <iptables_restore_main+0x30c>
 8049d88:	83 ec 0c             	sub    $0xc,%esp
 8049d8b:	50                   	push   %eax
 8049d8c:	e8 a7 83 00 00       	call   8052138 <iptc_free>
 8049d91:	83 c4 10             	add    $0x10,%esp
 8049d94:	83 ec 0c             	sub    $0xc,%esp
 8049d97:	53                   	push   %ebx
 8049d98:	e8 30 84 00 00       	call   80521cd <iptc_init>
 8049d9d:	83 c4 10             	add    $0x10,%esp
 8049da0:	85 c0                	test   %eax,%eax
 8049da2:	75 2f                	jne    8049dd3 <iptables_restore_main+0x34b>
 8049da4:	56                   	push   %esi
 8049da5:	56                   	push   %esi
 8049da6:	6a 00                	push   $0x0
 8049da8:	ff 35 9c 0e 0c 08    	pushl  0x80c0e9c
 8049dae:	e8 04 58 00 00       	call   804f5b7 <xtables_load_ko>
 8049db3:	89 1c 24             	mov    %ebx,(%esp)
 8049db6:	e8 12 84 00 00       	call   80521cd <iptc_init>
 8049dbb:	83 c4 10             	add    $0x10,%esp
 8049dbe:	85 c0                	test   %eax,%eax
 8049dc0:	75 11                	jne    8049dd3 <iptables_restore_main+0x34b>
 8049dc2:	53                   	push   %ebx
 8049dc3:	ff 35 d8 72 07 08    	pushl  0x80772d8
 8049dc9:	68 ea 67 06 08       	push   $0x80667ea
 8049dce:	e9 fb 03 00 00       	jmp    804a1ce <iptables_restore_main+0x746>
 8049dd3:	83 3d 48 97 07 08 00 	cmpl   $0x0,0x8079748
 8049dda:	89 45 ec             	mov    %eax,-0x14(%ebp)
 8049ddd:	74 0f                	je     8049dee <iptables_restore_main+0x366>
 8049ddf:	c7 85 90 d3 ff ff 01 	movl   $0x1,-0x2c70(%ebp)
 8049de6:	00 00 00 
 8049de9:	e9 50 04 00 00       	jmp    804a23e <iptables_restore_main+0x7b6>
 8049dee:	50                   	push   %eax
 8049def:	bf 01 00 00 00       	mov    $0x1,%edi
 8049df4:	6a 01                	push   $0x1
 8049df6:	ff 35 44 97 07 08    	pushl  0x8079744
 8049dfc:	68 ea c6 04 08       	push   $0x804c6ea
 8049e01:	e8 84 23 00 00       	call   804c18a <for_each_chain>
 8049e06:	ff 75 ec             	pushl  -0x14(%ebp)
 8049e09:	6a 00                	push   $0x0
 8049e0b:	ff 35 44 97 07 08    	pushl  0x8079744
 8049e11:	68 96 c6 04 08       	push   $0x804c696
 8049e16:	e8 6f 23 00 00       	call   804c18a <for_each_chain>
 8049e1b:	83 c4 20             	add    $0x20,%esp
 8049e1e:	c7 85 90 d3 ff ff 01 	movl   $0x1,-0x2c70(%ebp)
 8049e25:	00 00 00 
 8049e28:	e9 16 04 00 00       	jmp    804a243 <iptables_restore_main+0x7bb>
 8049e2d:	80 fb 3a             	cmp    $0x3a,%bl
 8049e30:	0f 85 d8 01 00 00    	jne    804a00e <iptables_restore_main+0x586>
 8049e36:	84 d2                	test   %dl,%dl
 8049e38:	0f 84 d4 01 00 00    	je     804a012 <iptables_restore_main+0x58a>
 8049e3e:	53                   	push   %ebx
 8049e3f:	53                   	push   %ebx
 8049e40:	68 c6 67 06 08       	push   $0x80667c6
 8049e45:	8d 85 a8 d3 ff ff    	lea    -0x2c58(%ebp),%eax
 8049e4b:	50                   	push   %eax
 8049e4c:	e8 4b f5 ff ff       	call   804939c <strtok@plt>
 8049e51:	83 c4 10             	add    $0x10,%esp
 8049e54:	85 c0                	test   %eax,%eax
 8049e56:	89 c6                	mov    %eax,%esi
 8049e58:	75 16                	jne    8049e70 <iptables_restore_main+0x3e8>
 8049e5a:	ff 35 d0 72 07 08    	pushl  0x80772d0
 8049e60:	ff 35 d8 72 07 08    	pushl  0x80772d8
 8049e66:	68 0f 68 06 08       	push   $0x806680f
 8049e6b:	e9 5e 03 00 00       	jmp    804a1ce <iptables_restore_main+0x746>
 8049e70:	51                   	push   %ecx
 8049e71:	51                   	push   %ecx
 8049e72:	ff 75 ec             	pushl  -0x14(%ebp)
 8049e75:	50                   	push   %eax
 8049e76:	e8 94 71 00 00       	call   805100f <iptc_builtin>
 8049e7b:	83 c4 10             	add    $0x10,%esp
 8049e7e:	85 c0                	test   %eax,%eax
 8049e80:	0f 8f 81 00 00 00    	jg     8049f07 <iptables_restore_main+0x47f>
 8049e86:	83 3d 48 97 07 08 00 	cmpl   $0x0,0x8079748
 8049e8d:	74 44                	je     8049ed3 <iptables_restore_main+0x44b>
 8049e8f:	52                   	push   %edx
 8049e90:	52                   	push   %edx
 8049e91:	ff 75 ec             	pushl  -0x14(%ebp)
 8049e94:	56                   	push   %esi
 8049e95:	e8 f8 71 00 00       	call   8051092 <iptc_is_chain>
 8049e9a:	83 c4 10             	add    $0x10,%esp
 8049e9d:	85 c0                	test   %eax,%eax
 8049e9f:	74 32                	je     8049ed3 <iptables_restore_main+0x44b>
 8049ea1:	50                   	push   %eax
 8049ea2:	50                   	push   %eax
 8049ea3:	ff 75 ec             	pushl  -0x14(%ebp)
 8049ea6:	56                   	push   %esi
 8049ea7:	e8 44 70 00 00       	call   8050ef0 <iptc_flush_entries>
 8049eac:	83 c4 10             	add    $0x10,%esp
 8049eaf:	85 c0                	test   %eax,%eax
 8049eb1:	75 54                	jne    8049f07 <iptables_restore_main+0x47f>
 8049eb3:	a1 6c 09 0c 08       	mov    0x80c096c,%eax
 8049eb8:	8b 58 14             	mov    0x14(%eax),%ebx
 8049ebb:	e8 0c f1 ff ff       	call   8048fcc <__errno_location@plt>
 8049ec0:	83 ec 0c             	sub    $0xc,%esp
 8049ec3:	ff 30                	pushl  (%eax)
 8049ec5:	e8 32 f1 ff ff       	call   8048ffc <strerror@plt>
 8049eca:	50                   	push   %eax
 8049ecb:	56                   	push   %esi
 8049ecc:	68 2f 68 06 08       	push   $0x806682f
 8049ed1:	eb 30                	jmp    8049f03 <iptables_restore_main+0x47b>
 8049ed3:	50                   	push   %eax
 8049ed4:	50                   	push   %eax
 8049ed5:	ff 75 ec             	pushl  -0x14(%ebp)
 8049ed8:	56                   	push   %esi
 8049ed9:	e8 48 7e 00 00       	call   8051d26 <iptc_create_chain>
 8049ede:	83 c4 10             	add    $0x10,%esp
 8049ee1:	85 c0                	test   %eax,%eax
 8049ee3:	75 22                	jne    8049f07 <iptables_restore_main+0x47f>
 8049ee5:	a1 6c 09 0c 08       	mov    0x80c096c,%eax
 8049eea:	8b 58 14             	mov    0x14(%eax),%ebx
 8049eed:	e8 da f0 ff ff       	call   8048fcc <__errno_location@plt>
 8049ef2:	83 ec 0c             	sub    $0xc,%esp
 8049ef5:	ff 30                	pushl  (%eax)
 8049ef7:	e8 00 f1 ff ff       	call   8048ffc <strerror@plt>
 8049efc:	50                   	push   %eax
 8049efd:	56                   	push   %esi
 8049efe:	68 4d 68 06 08       	push   $0x806684d
 8049f03:	6a 02                	push   $0x2
 8049f05:	ff d3                	call   *%ebx
 8049f07:	50                   	push   %eax
 8049f08:	50                   	push   %eax
 8049f09:	68 c6 67 06 08       	push   $0x80667c6
 8049f0e:	6a 00                	push   $0x0
 8049f10:	e8 87 f4 ff ff       	call   804939c <strtok@plt>
 8049f15:	83 c4 10             	add    $0x10,%esp
 8049f18:	85 c0                	test   %eax,%eax
 8049f1a:	89 85 9c d3 ff ff    	mov    %eax,-0x2c64(%ebp)
 8049f20:	75 16                	jne    8049f38 <iptables_restore_main+0x4b0>
 8049f22:	ff 35 d0 72 07 08    	pushl  0x80772d0
 8049f28:	ff 35 d8 72 07 08    	pushl  0x80772d8
 8049f2e:	68 6b 68 06 08       	push   $0x806686b
 8049f33:	e9 96 02 00 00       	jmp    804a1ce <iptables_restore_main+0x746>
 8049f38:	50                   	push   %eax
 8049f39:	50                   	push   %eax
 8049f3a:	68 72 03 07 08       	push   $0x8070372
 8049f3f:	ff b5 9c d3 ff ff    	pushl  -0x2c64(%ebp)
 8049f45:	e8 a2 f5 ff ff       	call   80494ec <strcmp@plt>
 8049f4a:	83 c4 10             	add    $0x10,%esp
 8049f4d:	85 c0                	test   %eax,%eax
 8049f4f:	0f 84 e9 02 00 00    	je     804a23e <iptables_restore_main+0x7b6>
 8049f55:	83 3d 40 97 07 08 00 	cmpl   $0x0,0x8079740
 8049f5c:	74 56                	je     8049fb4 <iptables_restore_main+0x52c>
 8049f5e:	50                   	push   %eax
 8049f5f:	50                   	push   %eax
 8049f60:	68 c6 67 06 08       	push   $0x80667c6
 8049f65:	6a 00                	push   $0x0
 8049f67:	e8 30 f4 ff ff       	call   804939c <strtok@plt>
 8049f6c:	83 c4 10             	add    $0x10,%esp
 8049f6f:	85 c0                	test   %eax,%eax
 8049f71:	89 c2                	mov    %eax,%edx
 8049f73:	74 33                	je     8049fa8 <iptables_restore_main+0x520>
 8049f75:	8d 45 d8             	lea    -0x28(%ebp),%eax
 8049f78:	50                   	push   %eax
 8049f79:	8d 45 e0             	lea    -0x20(%ebp),%eax
 8049f7c:	50                   	push   %eax
 8049f7d:	68 87 68 06 08       	push   $0x8066887
 8049f82:	52                   	push   %edx
 8049f83:	e8 c4 f4 ff ff       	call   804944c <sscanf@plt>
 8049f88:	8b 55 e0             	mov    -0x20(%ebp),%edx
 8049f8b:	83 c4 10             	add    $0x10,%esp
 8049f8e:	8b 4d e4             	mov    -0x1c(%ebp),%ecx
 8049f91:	89 55 c8             	mov    %edx,-0x38(%ebp)
 8049f94:	8b 55 d8             	mov    -0x28(%ebp),%edx
 8049f97:	89 4d cc             	mov    %ecx,-0x34(%ebp)
 8049f9a:	8b 4d dc             	mov    -0x24(%ebp),%ecx
 8049f9d:	83 f8 02             	cmp    $0x2,%eax
 8049fa0:	89 55 d0             	mov    %edx,-0x30(%ebp)
 8049fa3:	89 4d d4             	mov    %ecx,-0x2c(%ebp)
 8049fa6:	74 18                	je     8049fc0 <iptables_restore_main+0x538>
 8049fa8:	50                   	push   %eax
 8049fa9:	56                   	push   %esi
 8049faa:	68 93 68 06 08       	push   $0x8066893
 8049faf:	e9 1a 02 00 00       	jmp    804a1ce <iptables_restore_main+0x746>
 8049fb4:	8d 7d c8             	lea    -0x38(%ebp),%edi
 8049fb7:	b9 04 00 00 00       	mov    $0x4,%ecx
 8049fbc:	31 c0                	xor    %eax,%eax
 8049fbe:	f3 ab                	rep stos %eax,%es:(%edi)
 8049fc0:	ff 75 ec             	pushl  -0x14(%ebp)
 8049fc3:	8d 45 c8             	lea    -0x38(%ebp),%eax
 8049fc6:	50                   	push   %eax
 8049fc7:	ff b5 9c d3 ff ff    	pushl  -0x2c64(%ebp)
 8049fcd:	56                   	push   %esi
 8049fce:	e8 61 6c 00 00       	call   8050c34 <iptc_set_policy>
 8049fd3:	83 c4 10             	add    $0x10,%esp
 8049fd6:	85 c0                	test   %eax,%eax
 8049fd8:	0f 85 60 02 00 00    	jne    804a23e <iptables_restore_main+0x7b6>
 8049fde:	a1 6c 09 0c 08       	mov    0x80c096c,%eax
 8049fe3:	8b 58 14             	mov    0x14(%eax),%ebx
 8049fe6:	e8 e1 ef ff ff       	call   8048fcc <__errno_location@plt>
 8049feb:	83 ec 0c             	sub    $0xc,%esp
 8049fee:	ff 30                	pushl  (%eax)
 8049ff0:	e8 88 62 00 00       	call   805027d <iptc_strerror>
 8049ff5:	59                   	pop    %ecx
 8049ff6:	5f                   	pop    %edi
 8049ff7:	50                   	push   %eax
 8049ff8:	ff 35 d0 72 07 08    	pushl  0x80772d0
 8049ffe:	ff b5 9c d3 ff ff    	pushl  -0x2c64(%ebp)
 804a004:	56                   	push   %esi
 804a005:	68 bb 68 06 08       	push   $0x80668bb
 804a00a:	6a 01                	push   $0x1
 804a00c:	ff d3                	call   *%ebx
 804a00e:	84 d2                	test   %dl,%dl
 804a010:	75 07                	jne    804a019 <iptables_restore_main+0x591>
 804a012:	31 ff                	xor    %edi,%edi
 804a014:	e9 2a 02 00 00       	jmp    804a243 <iptables_restore_main+0x7bb>
 804a019:	80 fb 5b             	cmp    $0x5b,%bl
 804a01c:	c7 05 48 9b 07 08 00 	movl   $0x0,0x8079b48
 804a023:	00 00 00 
 804a026:	8d 85 a7 d3 ff ff    	lea    -0x2c59(%ebp),%eax
 804a02c:	74 08                	je     804a036 <iptables_restore_main+0x5ae>
 804a02e:	31 ff                	xor    %edi,%edi
 804a030:	31 db                	xor    %ebx,%ebx
 804a032:	89 c6                	mov    %eax,%esi
 804a034:	eb 6d                	jmp    804a0a3 <iptables_restore_main+0x61b>
 804a036:	52                   	push   %edx
 804a037:	52                   	push   %edx
 804a038:	6a 5d                	push   $0x5d
 804a03a:	50                   	push   %eax
 804a03b:	e8 6c f0 ff ff       	call   80490ac <strchr@plt>
 804a040:	83 c4 10             	add    $0x10,%esp
 804a043:	85 c0                	test   %eax,%eax
 804a045:	89 c6                	mov    %eax,%esi
 804a047:	75 04                	jne    804a04d <iptables_restore_main+0x5c5>
 804a049:	50                   	push   %eax
 804a04a:	57                   	push   %edi
 804a04b:	eb 4b                	jmp    804a098 <iptables_restore_main+0x610>
 804a04d:	50                   	push   %eax
 804a04e:	50                   	push   %eax
 804a04f:	68 c5 84 06 08       	push   $0x80684c5
 804a054:	8d 85 a8 d3 ff ff    	lea    -0x2c58(%ebp),%eax
 804a05a:	50                   	push   %eax
 804a05b:	e8 3c f3 ff ff       	call   804939c <strtok@plt>
 804a060:	83 c4 10             	add    $0x10,%esp
 804a063:	85 c0                	test   %eax,%eax
 804a065:	89 c7                	mov    %eax,%edi
 804a067:	75 11                	jne    804a07a <iptables_restore_main+0x5f2>
 804a069:	50                   	push   %eax
 804a06a:	ff 35 d0 72 07 08    	pushl  0x80772d0
 804a070:	68 fb 68 06 08       	push   $0x80668fb
 804a075:	e9 54 01 00 00       	jmp    804a1ce <iptables_restore_main+0x746>
 804a07a:	50                   	push   %eax
 804a07b:	50                   	push   %eax
 804a07c:	68 f5 65 06 08       	push   $0x80665f5
 804a081:	6a 00                	push   $0x0
 804a083:	e8 14 f3 ff ff       	call   804939c <strtok@plt>
 804a088:	83 c4 10             	add    $0x10,%esp
 804a08b:	85 c0                	test   %eax,%eax
 804a08d:	89 c3                	mov    %eax,%ebx
 804a08f:	75 11                	jne    804a0a2 <iptables_restore_main+0x61a>
 804a091:	50                   	push   %eax
 804a092:	ff 35 d0 72 07 08    	pushl  0x80772d0
 804a098:	68 e6 68 06 08       	push   $0x80668e6
 804a09d:	e9 2c 01 00 00       	jmp    804a1ce <iptables_restore_main+0x746>
 804a0a2:	46                   	inc    %esi
 804a0a3:	8b 55 0c             	mov    0xc(%ebp),%edx
 804a0a6:	8b 02                	mov    (%edx),%eax
 804a0a8:	e8 97 f9 ff ff       	call   8049a44 <add_argv>
 804a0ad:	b8 10 69 06 08       	mov    $0x8066910,%eax
 804a0b2:	e8 8d f9 ff ff       	call   8049a44 <add_argv>
 804a0b7:	8d 45 a7             	lea    -0x59(%ebp),%eax
 804a0ba:	e8 85 f9 ff ff       	call   8049a44 <add_argv>
 804a0bf:	83 3d 40 97 07 08 00 	cmpl   $0x0,0x8079740
 804a0c6:	74 20                	je     804a0e8 <iptables_restore_main+0x660>
 804a0c8:	85 ff                	test   %edi,%edi
 804a0ca:	74 1c                	je     804a0e8 <iptables_restore_main+0x660>
 804a0cc:	85 db                	test   %ebx,%ebx
 804a0ce:	74 18                	je     804a0e8 <iptables_restore_main+0x660>
 804a0d0:	b8 13 69 06 08       	mov    $0x8066913,%eax
 804a0d5:	e8 6a f9 ff ff       	call   8049a44 <add_argv>
 804a0da:	89 f8                	mov    %edi,%eax
 804a0dc:	e8 63 f9 ff ff       	call   8049a44 <add_argv>
 804a0e1:	89 d8                	mov    %ebx,%eax
 804a0e3:	e8 5c f9 ff ff       	call   8049a44 <add_argv>
 804a0e8:	89 f3                	mov    %esi,%ebx
 804a0ea:	31 c0                	xor    %eax,%eax
 804a0ec:	31 f6                	xor    %esi,%esi
 804a0ee:	31 c9                	xor    %ecx,%ecx
 804a0f0:	e9 f2 00 00 00       	jmp    804a1e7 <iptables_restore_main+0x75f>
 804a0f5:	85 c0                	test   %eax,%eax
 804a0f7:	74 3d                	je     804a136 <iptables_restore_main+0x6ae>
 804a0f9:	85 f6                	test   %esi,%esi
 804a0fb:	74 14                	je     804a111 <iptables_restore_main+0x689>
 804a0fd:	88 94 0d a7 fb ff ff 	mov    %dl,-0x459(%ebp,%ecx,1)
 804a104:	b8 01 00 00 00       	mov    $0x1,%eax
 804a109:	41                   	inc    %ecx
 804a10a:	31 f6                	xor    %esi,%esi
 804a10c:	e9 d5 00 00 00       	jmp    804a1e6 <iptables_restore_main+0x75e>
 804a111:	80 fa 5c             	cmp    $0x5c,%dl
 804a114:	0f 84 be 00 00 00    	je     804a1d8 <iptables_restore_main+0x750>
 804a11a:	80 fa 22             	cmp    $0x22,%dl
 804a11d:	75 05                	jne    804a124 <iptables_restore_main+0x69c>
 804a11f:	c6 03 20             	movb   $0x20,(%ebx)
 804a122:	eb 20                	jmp    804a144 <iptables_restore_main+0x6bc>
 804a124:	88 94 0d a7 fb ff ff 	mov    %dl,-0x459(%ebp,%ecx,1)
 804a12b:	b8 01 00 00 00       	mov    $0x1,%eax
 804a130:	41                   	inc    %ecx
 804a131:	e9 b0 00 00 00       	jmp    804a1e6 <iptables_restore_main+0x75e>
 804a136:	80 fa 22             	cmp    $0x22,%dl
 804a139:	b8 01 00 00 00       	mov    $0x1,%eax
 804a13e:	0f 84 a2 00 00 00    	je     804a1e6 <iptables_restore_main+0x75e>
 804a144:	8a 03                	mov    (%ebx),%al
 804a146:	3c 20                	cmp    $0x20,%al
 804a148:	74 08                	je     804a152 <iptables_restore_main+0x6ca>
 804a14a:	3c 09                	cmp    $0x9,%al
 804a14c:	74 04                	je     804a152 <iptables_restore_main+0x6ca>
 804a14e:	3c 0a                	cmp    $0xa,%al
 804a150:	75 65                	jne    804a1b7 <iptables_restore_main+0x72f>
 804a152:	85 c9                	test   %ecx,%ecx
 804a154:	0f 84 8a 00 00 00    	je     804a1e4 <iptables_restore_main+0x75c>
 804a15a:	50                   	push   %eax
 804a15b:	6a 02                	push   $0x2
 804a15d:	68 10 69 06 08       	push   $0x8066910
 804a162:	8d 85 a7 fb ff ff    	lea    -0x459(%ebp),%eax
 804a168:	50                   	push   %eax
 804a169:	c6 84 0d a7 fb ff ff 	movb   $0x0,-0x459(%ebp,%ecx,1)
 804a170:	00 
 804a171:	e8 e6 f2 ff ff       	call   804945c <strncmp@plt>
 804a176:	83 c4 10             	add    $0x10,%esp
 804a179:	85 c0                	test   %eax,%eax
 804a17b:	74 1b                	je     804a198 <iptables_restore_main+0x710>
 804a17d:	57                   	push   %edi
 804a17e:	6a 08                	push   $0x8
 804a180:	68 8d 7a 06 08       	push   $0x8067a8d
 804a185:	8d 95 a7 fb ff ff    	lea    -0x459(%ebp),%edx
 804a18b:	52                   	push   %edx
 804a18c:	e8 cb f2 ff ff       	call   804945c <strncmp@plt>
 804a191:	83 c4 10             	add    $0x10,%esp
 804a194:	85 c0                	test   %eax,%eax
 804a196:	75 0e                	jne    804a1a6 <iptables_restore_main+0x71e>
 804a198:	53                   	push   %ebx
 804a199:	ff 35 d0 72 07 08    	pushl  0x80772d0
 804a19f:	68 22 69 06 08       	push   $0x8066922
 804a1a4:	eb 28                	jmp    804a1ce <iptables_restore_main+0x746>
 804a1a6:	8d 85 a7 fb ff ff    	lea    -0x459(%ebp),%eax
 804a1ac:	e8 93 f8 ff ff       	call   8049a44 <add_argv>
 804a1b1:	31 c0                	xor    %eax,%eax
 804a1b3:	31 c9                	xor    %ecx,%ecx
 804a1b5:	eb 2f                	jmp    804a1e6 <iptables_restore_main+0x75e>
 804a1b7:	88 84 0d a7 fb ff ff 	mov    %al,-0x459(%ebp,%ecx,1)
 804a1be:	41                   	inc    %ecx
 804a1bf:	81 f9 ff 03 00 00    	cmp    $0x3ff,%ecx
 804a1c5:	76 1d                	jbe    804a1e4 <iptables_restore_main+0x75c>
 804a1c7:	51                   	push   %ecx
 804a1c8:	51                   	push   %ecx
 804a1c9:	68 4c 69 06 08       	push   $0x806694c
 804a1ce:	a1 6c 09 0c 08       	mov    0x80c096c,%eax
 804a1d3:	6a 02                	push   $0x2
 804a1d5:	ff 50 14             	call   *0x14(%eax)
 804a1d8:	b8 01 00 00 00       	mov    $0x1,%eax
 804a1dd:	be 01 00 00 00       	mov    $0x1,%esi
 804a1e2:	eb 02                	jmp    804a1e6 <iptables_restore_main+0x75e>
 804a1e4:	31 c0                	xor    %eax,%eax
 804a1e6:	43                   	inc    %ebx
 804a1e7:	8a 13                	mov    (%ebx),%dl
 804a1e9:	84 d2                	test   %dl,%dl
 804a1eb:	0f 85 04 ff ff ff    	jne    804a0f5 <iptables_restore_main+0x66d>
 804a1f1:	8d 45 ec             	lea    -0x14(%ebp),%eax
 804a1f4:	31 db                	xor    %ebx,%ebx
 804a1f6:	50                   	push   %eax
 804a1f7:	68 54 97 07 08       	push   $0x8079754
 804a1fc:	68 4c 97 07 08       	push   $0x807974c
 804a201:	ff 35 48 9b 07 08    	pushl  0x8079b48
 804a207:	e8 32 25 00 00       	call   804c73e <do_command>
 804a20c:	89 c7                	mov    %eax,%edi
 804a20e:	eb 10                	jmp    804a220 <iptables_restore_main+0x798>
 804a210:	83 ec 0c             	sub    $0xc,%esp
 804a213:	ff 34 9d 4c 97 07 08 	pushl  0x807974c(,%ebx,4)
 804a21a:	43                   	inc    %ebx
 804a21b:	e8 ac ef ff ff       	call   80491cc <free@plt>
 804a220:	83 c4 10             	add    $0x10,%esp
 804a223:	3b 1d 48 9b 07 08    	cmp    0x8079b48,%ebx
 804a229:	7c e5                	jl     804a210 <iptables_restore_main+0x788>
 804a22b:	83 ec 0c             	sub    $0xc,%esp
 804a22e:	ff 35 20 97 07 08    	pushl  0x8079720
 804a234:	e8 d3 ef ff ff       	call   804920c <fflush@plt>
 804a239:	83 c4 10             	add    $0x10,%esp
 804a23c:	eb 05                	jmp    804a243 <iptables_restore_main+0x7bb>
 804a23e:	bf 01 00 00 00       	mov    $0x1,%edi
 804a243:	83 bd 98 d3 ff ff 00 	cmpl   $0x0,-0x2c68(%ebp)
 804a24a:	74 18                	je     804a264 <iptables_restore_main+0x7dc>
 804a24c:	52                   	push   %edx
 804a24d:	52                   	push   %edx
 804a24e:	8d 45 a7             	lea    -0x59(%ebp),%eax
 804a251:	50                   	push   %eax
 804a252:	ff b5 98 d3 ff ff    	pushl  -0x2c68(%ebp)
 804a258:	e8 8f f2 ff ff       	call   80494ec <strcmp@plt>
 804a25d:	83 c4 10             	add    $0x10,%esp
 804a260:	85 c0                	test   %eax,%eax
 804a262:	75 1a                	jne    804a27e <iptables_restore_main+0x7f6>
 804a264:	85 ff                	test   %edi,%edi
 804a266:	75 16                	jne    804a27e <iptables_restore_main+0x7f6>
 804a268:	ff 35 d0 72 07 08    	pushl  0x80772d0
 804a26e:	ff 35 d8 72 07 08    	pushl  0x80772d8
 804a274:	68 60 69 06 08       	push   $0x8066960
 804a279:	e9 f0 f8 ff ff       	jmp    8049b6e <iptables_restore_main+0xe6>
 804a27e:	50                   	push   %eax
 804a27f:	ff b5 8c d3 ff ff    	pushl  -0x2c74(%ebp)
 804a285:	8d b5 a7 d3 ff ff    	lea    -0x2c59(%ebp),%esi
 804a28b:	68 00 28 00 00       	push   $0x2800
 804a290:	56                   	push   %esi
 804a291:	e8 66 ee ff ff       	call   80490fc <fgets@plt>
 804a296:	83 c4 10             	add    $0x10,%esp
 804a299:	85 c0                	test   %eax,%eax
 804a29b:	0f 85 bb f9 ff ff    	jne    8049c5c <iptables_restore_main+0x1d4>
 804a2a1:	83 bd 90 d3 ff ff 00 	cmpl   $0x0,-0x2c70(%ebp)
 804a2a8:	74 17                	je     804a2c1 <iptables_restore_main+0x839>
 804a2aa:	a1 d0 72 07 08       	mov    0x80772d0,%eax
 804a2af:	40                   	inc    %eax
 804a2b0:	50                   	push   %eax
 804a2b1:	ff 35 d8 72 07 08    	pushl  0x80772d8
 804a2b7:	68 74 69 06 08       	push   $0x8066974
 804a2bc:	e9 ad f8 ff ff       	jmp    8049b6e <iptables_restore_main+0xe6>
 804a2c1:	83 bd 8c d3 ff ff 00 	cmpl   $0x0,-0x2c74(%ebp)
 804a2c8:	74 11                	je     804a2db <iptables_restore_main+0x853>
 804a2ca:	83 ec 0c             	sub    $0xc,%esp
 804a2cd:	ff b5 8c d3 ff ff    	pushl  -0x2c74(%ebp)
 804a2d3:	e8 84 ef ff ff       	call   804925c <fclose@plt>
 804a2d8:	83 c4 10             	add    $0x10,%esp
 804a2db:	8d 65 f4             	lea    -0xc(%ebp),%esp
 804a2de:	31 c0                	xor    %eax,%eax
 804a2e0:	5b                   	pop    %ebx
 804a2e1:	5e                   	pop    %esi
 804a2e2:	5f                   	pop    %edi
 804a2e3:	5d                   	pop    %ebp
 804a2e4:	c3                   	ret    
 804a2e5:	90                   	nop    
 804a2e6:	90                   	nop    
 804a2e7:	90                   	nop    

0804a2e8 <closeChain>:
 804a2e8:	55                   	push   %ebp
 804a2e9:	89 e5                	mov    %esp,%ebp
 804a2eb:	83 ec 08             	sub    $0x8,%esp
 804a2ee:	80 3d c0 a7 07 08 00 	cmpb   $0x0,0x807a7c0
 804a2f5:	74 60                	je     804a357 <closeChain+0x6f>
 804a2f7:	80 3d 54 a7 07 08 00 	cmpb   $0x0,0x807a754
 804a2fe:	74 10                	je     804a310 <closeChain+0x28>
 804a300:	83 ec 0c             	sub    $0xc,%esp
 804a303:	68 54 a7 07 08       	push   $0x807a754
 804a308:	e8 0f f1 ff ff       	call   804941c <puts@plt>
 804a30d:	83 c4 10             	add    $0x10,%esp
 804a310:	80 3d 78 a7 07 08 00 	cmpb   $0x0,0x807a778
 804a317:	c6 05 54 a7 07 08 00 	movb   $0x0,0x807a754
 804a31e:	74 10                	je     804a330 <closeChain+0x48>
 804a320:	83 ec 0c             	sub    $0xc,%esp
 804a323:	68 78 a7 07 08       	push   $0x807a778
 804a328:	e8 ef f0 ff ff       	call   804941c <puts@plt>
 804a32d:	83 c4 10             	add    $0x10,%esp
 804a330:	80 3d c0 a7 07 08 00 	cmpb   $0x0,0x807a7c0
 804a337:	c6 05 78 a7 07 08 00 	movb   $0x0,0x807a778
 804a33e:	74 10                	je     804a350 <closeChain+0x68>
 804a340:	83 ec 0c             	sub    $0xc,%esp
 804a343:	68 40 6a 06 08       	push   $0x8066a40
 804a348:	e8 cf f0 ff ff       	call   804941c <puts@plt>
 804a34d:	83 c4 10             	add    $0x10,%esp
 804a350:	c6 05 c0 a7 07 08 00 	movb   $0x0,0x807a7c0
 804a357:	c9                   	leave  
 804a358:	c3                   	ret    

0804a359 <isTarget>:
 804a359:	55                   	push   %ebp
 804a35a:	89 e5                	mov    %esp,%ebp
 804a35c:	53                   	push   %ebx
 804a35d:	89 c3                	mov    %eax,%ebx
 804a35f:	83 ec 04             	sub    $0x4,%esp
 804a362:	31 c0                	xor    %eax,%eax
 804a364:	85 db                	test   %ebx,%ebx
 804a366:	74 5b                	je     804a3c3 <isTarget+0x6a>
 804a368:	50                   	push   %eax
 804a369:	50                   	push   %eax
 804a36a:	68 4d 6a 06 08       	push   $0x8066a4d
 804a36f:	53                   	push   %ebx
 804a370:	e8 77 f1 ff ff       	call   80494ec <strcmp@plt>
 804a375:	83 c4 10             	add    $0x10,%esp
 804a378:	85 c0                	test   %eax,%eax
 804a37a:	74 42                	je     804a3be <isTarget+0x65>
 804a37c:	51                   	push   %ecx
 804a37d:	51                   	push   %ecx
 804a37e:	68 50 6a 06 08       	push   $0x8066a50
 804a383:	53                   	push   %ebx
 804a384:	e8 63 f1 ff ff       	call   80494ec <strcmp@plt>
 804a389:	83 c4 10             	add    $0x10,%esp
 804a38c:	85 c0                	test   %eax,%eax
 804a38e:	74 2e                	je     804a3be <isTarget+0x65>
 804a390:	52                   	push   %edx
 804a391:	52                   	push   %edx
 804a392:	68 57 6a 06 08       	push   $0x8066a57
 804a397:	53                   	push   %ebx
 804a398:	e8 4f f1 ff ff       	call   80494ec <strcmp@plt>
 804a39d:	83 c4 10             	add    $0x10,%esp
 804a3a0:	85 c0                	test   %eax,%eax
 804a3a2:	74 1a                	je     804a3be <isTarget+0x65>
 804a3a4:	50                   	push   %eax
 804a3a5:	50                   	push   %eax
 804a3a6:	68 5a 6a 06 08       	push   $0x8066a5a
 804a3ab:	53                   	push   %ebx
 804a3ac:	e8 3b f1 ff ff       	call   80494ec <strcmp@plt>
 804a3b1:	83 c4 10             	add    $0x10,%esp
 804a3b4:	85 c0                	test   %eax,%eax
 804a3b6:	0f 94 c0             	sete   %al
 804a3b9:	0f b6 c0             	movzbl %al,%eax
 804a3bc:	eb 05                	jmp    804a3c3 <isTarget+0x6a>
 804a3be:	b8 01 00 00 00       	mov    $0x1,%eax
 804a3c3:	8b 5d fc             	mov    -0x4(%ebp),%ebx
 804a3c6:	c9                   	leave  
 804a3c7:	c3                   	ret    

0804a3c8 <xmlCommentEscape>:
 804a3c8:	55                   	push   %ebp
 804a3c9:	89 e5                	mov    %esp,%ebp
 804a3cb:	56                   	push   %esi
 804a3cc:	31 f6                	xor    %esi,%esi
 804a3ce:	53                   	push   %ebx
 804a3cf:	89 c3                	mov    %eax,%ebx
 804a3d1:	eb 46                	jmp    804a419 <xmlCommentEscape+0x51>
 804a3d3:	3c 2d                	cmp    $0x2d,%al
 804a3d5:	75 26                	jne    804a3fd <xmlCommentEscape+0x35>
 804a3d7:	4e                   	dec    %esi
 804a3d8:	74 07                	je     804a3e1 <xmlCommentEscape+0x19>
 804a3da:	be 01 00 00 00       	mov    $0x1,%esi
 804a3df:	eb 0f                	jmp    804a3f0 <xmlCommentEscape+0x28>
 804a3e1:	83 ec 0c             	sub    $0xc,%esp
 804a3e4:	31 f6                	xor    %esi,%esi
 804a3e6:	6a 20                	push   $0x20
 804a3e8:	e8 ff ec ff ff       	call   80490ec <putchar@plt>
 804a3ed:	83 c4 10             	add    $0x10,%esp
 804a3f0:	83 ec 0c             	sub    $0xc,%esp
 804a3f3:	6a 2a                	push   $0x2a
 804a3f5:	e8 f2 ec ff ff       	call   80490ec <putchar@plt>
 804a3fa:	83 c4 10             	add    $0x10,%esp
 804a3fd:	8a 03                	mov    (%ebx),%al
 804a3ff:	3c 0a                	cmp    $0xa,%al
 804a401:	75 06                	jne    804a409 <xmlCommentEscape+0x41>
 804a403:	80 7b 01 00          	cmpb   $0x0,0x1(%ebx)
 804a407:	74 0f                	je     804a418 <xmlCommentEscape+0x50>
 804a409:	83 ec 0c             	sub    $0xc,%esp
 804a40c:	0f be c0             	movsbl %al,%eax
 804a40f:	50                   	push   %eax
 804a410:	e8 d7 ec ff ff       	call   80490ec <putchar@plt>
 804a415:	83 c4 10             	add    $0x10,%esp
 804a418:	43                   	inc    %ebx
 804a419:	85 db                	test   %ebx,%ebx
 804a41b:	74 06                	je     804a423 <xmlCommentEscape+0x5b>
 804a41d:	8a 03                	mov    (%ebx),%al
 804a41f:	84 c0                	test   %al,%al
 804a421:	75 b0                	jne    804a3d3 <xmlCommentEscape+0xb>
 804a423:	8d 65 f8             	lea    -0x8(%ebp),%esp
 804a426:	5b                   	pop    %ebx
 804a427:	5e                   	pop    %esi
 804a428:	5d                   	pop    %ebp
 804a429:	c3                   	ret    

0804a42a <xmlComment>:
 804a42a:	55                   	push   %ebp
 804a42b:	89 e5                	mov    %esp,%ebp
 804a42d:	53                   	push   %ebx
 804a42e:	89 c3                	mov    %eax,%ebx
 804a430:	83 ec 10             	sub    $0x10,%esp
 804a433:	68 61 6a 06 08       	push   $0x8066a61
 804a438:	e8 9f ee ff ff       	call   80492dc <printf@plt>
 804a43d:	89 d8                	mov    %ebx,%eax
 804a43f:	e8 84 ff ff ff       	call   804a3c8 <xmlCommentEscape>
 804a444:	c7 04 24 67 6a 06 08 	movl   $0x8066a67,(%esp)
 804a44b:	e8 cc ef ff ff       	call   804941c <puts@plt>
 804a450:	83 c4 10             	add    $0x10,%esp
 804a453:	8b 5d fc             	mov    -0x4(%ebp),%ebx
 804a456:	c9                   	leave  
 804a457:	c3                   	ret    

0804a458 <xmlEncode>:
 804a458:	55                   	push   %ebp
 804a459:	89 e5                	mov    %esp,%ebp
 804a45b:	53                   	push   %ebx
 804a45c:	89 c3                	mov    %eax,%ebx
 804a45e:	83 ec 04             	sub    $0x4,%esp
 804a461:	eb 5e                	jmp    804a4c1 <xmlEncode+0x69>
 804a463:	3c 7e                	cmp    $0x7e,%al
 804a465:	76 0d                	jbe    804a474 <xmlEncode+0x1c>
 804a467:	52                   	push   %edx
 804a468:	0f b6 c0             	movzbl %al,%eax
 804a46b:	52                   	push   %edx
 804a46c:	50                   	push   %eax
 804a46d:	68 6c 6a 06 08       	push   $0x8066a6c
 804a472:	eb 36                	jmp    804a4aa <xmlEncode+0x52>
 804a474:	3c 26                	cmp    $0x26,%al
 804a476:	75 0a                	jne    804a482 <xmlEncode+0x2a>
 804a478:	83 ec 0c             	sub    $0xc,%esp
 804a47b:	68 72 6a 06 08       	push   $0x8066a72
 804a480:	eb 28                	jmp    804a4aa <xmlEncode+0x52>
 804a482:	3c 3c                	cmp    $0x3c,%al
 804a484:	75 0a                	jne    804a490 <xmlEncode+0x38>
 804a486:	83 ec 0c             	sub    $0xc,%esp
 804a489:	68 78 6a 06 08       	push   $0x8066a78
 804a48e:	eb 1a                	jmp    804a4aa <xmlEncode+0x52>
 804a490:	3c 3e                	cmp    $0x3e,%al
 804a492:	75 0a                	jne    804a49e <xmlEncode+0x46>
 804a494:	83 ec 0c             	sub    $0xc,%esp
 804a497:	68 7d 6a 06 08       	push   $0x8066a7d
 804a49c:	eb 0c                	jmp    804a4aa <xmlEncode+0x52>
 804a49e:	3c 22                	cmp    $0x22,%al
 804a4a0:	75 0f                	jne    804a4b1 <xmlEncode+0x59>
 804a4a2:	83 ec 0c             	sub    $0xc,%esp
 804a4a5:	68 82 6a 06 08       	push   $0x8066a82
 804a4aa:	e8 2d ee ff ff       	call   80492dc <printf@plt>
 804a4af:	eb 0c                	jmp    804a4bd <xmlEncode+0x65>
 804a4b1:	83 ec 0c             	sub    $0xc,%esp
 804a4b4:	0f be c0             	movsbl %al,%eax
 804a4b7:	50                   	push   %eax
 804a4b8:	e8 2f ec ff ff       	call   80490ec <putchar@plt>
 804a4bd:	83 c4 10             	add    $0x10,%esp
 804a4c0:	43                   	inc    %ebx
 804a4c1:	85 db                	test   %ebx,%ebx
 804a4c3:	74 06                	je     804a4cb <xmlEncode+0x73>
 804a4c5:	8a 03                	mov    (%ebx),%al
 804a4c7:	84 c0                	test   %al,%al
 804a4c9:	75 98                	jne    804a463 <xmlEncode+0xb>
 804a4cb:	8b 5d fc             	mov    -0x4(%ebp),%ebx
 804a4ce:	c9                   	leave  
 804a4cf:	c3                   	ret    

0804a4d0 <xmlAttrS>:
 804a4d0:	55                   	push   %ebp
 804a4d1:	89 e5                	mov    %esp,%ebp
 804a4d3:	53                   	push   %ebx
 804a4d4:	89 d3                	mov    %edx,%ebx
 804a4d6:	83 ec 0c             	sub    $0xc,%esp
 804a4d9:	50                   	push   %eax
 804a4da:	68 89 6a 06 08       	push   $0x8066a89
 804a4df:	e8 f8 ed ff ff       	call   80492dc <printf@plt>
 804a4e4:	89 d8                	mov    %ebx,%eax
 804a4e6:	e8 6d ff ff ff       	call   804a458 <xmlEncode>
 804a4eb:	c7 04 24 af 6a 06 08 	movl   $0x8066aaf,(%esp)
 804a4f2:	e8 e5 ed ff ff       	call   80492dc <printf@plt>
 804a4f7:	83 c4 10             	add    $0x10,%esp
 804a4fa:	8b 5d fc             	mov    -0x4(%ebp),%ebx
 804a4fd:	c9                   	leave  
 804a4fe:	c3                   	ret    

0804a4ff <openChain>:
 804a4ff:	55                   	push   %ebp
 804a500:	89 e5                	mov    %esp,%ebp
 804a502:	57                   	push   %edi
 804a503:	89 cf                	mov    %ecx,%edi
 804a505:	56                   	push   %esi
 804a506:	89 d6                	mov    %edx,%esi
 804a508:	53                   	push   %ebx
 804a509:	89 c3                	mov    %eax,%ebx
 804a50b:	83 ec 0c             	sub    $0xc,%esp
 804a50e:	8a 45 08             	mov    0x8(%ebp),%al
 804a511:	88 45 f3             	mov    %al,-0xd(%ebp)
 804a514:	e8 cf fd ff ff       	call   804a2e8 <closeChain>
 804a519:	50                   	push   %eax
 804a51a:	6a 20                	push   $0x20
 804a51c:	53                   	push   %ebx
 804a51d:	68 c0 a7 07 08       	push   $0x807a7c0
 804a522:	e8 b5 eb ff ff       	call   80490dc <strncpy@plt>
 804a527:	c6 05 e0 a7 07 08 00 	movb   $0x0,0x807a7e0
 804a52e:	c7 04 24 8e 6a 06 08 	movl   $0x8066a8e,(%esp)
 804a535:	e8 a2 ed ff ff       	call   80492dc <printf@plt>
 804a53a:	ba c0 a7 07 08       	mov    $0x807a7c0,%edx
 804a53f:	b8 f9 8b 06 08       	mov    $0x8068bf9,%eax
 804a544:	e8 87 ff ff ff       	call   804a4d0 <xmlAttrS>
 804a549:	59                   	pop    %ecx
 804a54a:	5b                   	pop    %ebx
 804a54b:	68 72 03 07 08       	push   $0x8070372
 804a550:	56                   	push   %esi
 804a551:	e8 96 ef ff ff       	call   80494ec <strcmp@plt>
 804a556:	83 c4 10             	add    $0x10,%esp
 804a559:	85 c0                	test   %eax,%eax
 804a55b:	74 0c                	je     804a569 <openChain+0x6a>
 804a55d:	89 f2                	mov    %esi,%edx
 804a55f:	b8 c7 70 06 08       	mov    $0x80670c7,%eax
 804a564:	e8 67 ff ff ff       	call   804a4d0 <xmlAttrS>
 804a569:	ff 77 04             	pushl  0x4(%edi)
 804a56c:	ff 37                	pushl  (%edi)
 804a56e:	68 9a 6a 06 08       	push   $0x8066a9a
 804a573:	68 a7 6a 06 08       	push   $0x8066aa7
 804a578:	e8 5f ed ff ff       	call   80492dc <printf@plt>
 804a57d:	ff 77 0c             	pushl  0xc(%edi)
 804a580:	ff 77 08             	pushl  0x8(%edi)
 804a583:	68 b2 6a 06 08       	push   $0x8066ab2
 804a588:	68 a7 6a 06 08       	push   $0x8066aa7
 804a58d:	e8 4a ed ff ff       	call   80492dc <printf@plt>
 804a592:	83 c4 20             	add    $0x20,%esp
 804a595:	80 7d f3 00          	cmpb   $0x0,-0xd(%ebp)
 804a599:	74 17                	je     804a5b2 <openChain+0xb3>
 804a59b:	0f be 45 f3          	movsbl -0xd(%ebp),%eax
 804a59f:	83 ec 0c             	sub    $0xc,%esp
 804a5a2:	50                   	push   %eax
 804a5a3:	e8 44 eb ff ff       	call   80490ec <putchar@plt>
 804a5a8:	83 c4 10             	add    $0x10,%esp
 804a5ab:	c6 05 c0 a7 07 08 00 	movb   $0x0,0x807a7c0
 804a5b2:	c7 45 08 b5 6b 06 08 	movl   $0x8066bb5,0x8(%ebp)
 804a5b9:	8d 65 f4             	lea    -0xc(%ebp),%esp
 804a5bc:	5b                   	pop    %ebx
 804a5bd:	5e                   	pop    %esi
 804a5be:	5f                   	pop    %edi
 804a5bf:	5d                   	pop    %ebp
 804a5c0:	e9 57 ee ff ff       	jmp    804941c <puts@plt>

0804a5c5 <closeTable>:
 804a5c5:	55                   	push   %ebp
 804a5c6:	89 e5                	mov    %esp,%ebp
 804a5c8:	56                   	push   %esi
 804a5c9:	31 f6                	xor    %esi,%esi
 804a5cb:	53                   	push   %ebx
 804a5cc:	bb e4 a7 07 08       	mov    $0x807a7e4,%ebx
 804a5d1:	e8 12 fd ff ff       	call   804a2e8 <closeChain>
 804a5d6:	eb 36                	jmp    804a60e <closeTable+0x49>
 804a5d8:	83 7b 18 00          	cmpl   $0x0,0x18(%ebx)
 804a5dc:	75 2c                	jne    804a60a <closeTable+0x45>
 804a5de:	6b ce 1c             	imul   $0x1c,%esi,%ecx
 804a5e1:	8b 53 04             	mov    0x4(%ebx),%edx
 804a5e4:	83 ec 0c             	sub    $0xc,%esp
 804a5e7:	8b 03                	mov    (%ebx),%eax
 804a5e9:	6a 2f                	push   $0x2f
 804a5eb:	81 c1 ec a7 07 08    	add    $0x807a7ec,%ecx
 804a5f1:	e8 09 ff ff ff       	call   804a4ff <openChain>
 804a5f6:	58                   	pop    %eax
 804a5f7:	ff 33                	pushl  (%ebx)
 804a5f9:	e8 ce eb ff ff       	call   80491cc <free@plt>
 804a5fe:	58                   	pop    %eax
 804a5ff:	ff 73 04             	pushl  0x4(%ebx)
 804a602:	e8 c5 eb ff ff       	call   80491cc <free@plt>
 804a607:	83 c4 10             	add    $0x10,%esp
 804a60a:	46                   	inc    %esi
 804a60b:	83 c3 1c             	add    $0x1c,%ebx
 804a60e:	3b 35 58 9b 07 08    	cmp    0x8079b58,%esi
 804a614:	7c c2                	jl     804a5d8 <closeTable+0x13>
 804a616:	80 3d 9c a7 07 08 00 	cmpb   $0x0,0x807a79c
 804a61d:	c7 05 58 9b 07 08 00 	movl   $0x0,0x8079b58
 804a624:	00 00 00 
 804a627:	74 10                	je     804a639 <closeTable+0x74>
 804a629:	83 ec 0c             	sub    $0xc,%esp
 804a62c:	68 bd 6a 06 08       	push   $0x8066abd
 804a631:	e8 e6 ed ff ff       	call   804941c <puts@plt>
 804a636:	83 c4 10             	add    $0x10,%esp
 804a639:	c6 05 9c a7 07 08 00 	movb   $0x0,0x807a79c
 804a640:	8d 65 f8             	lea    -0x8(%ebp),%esp
 804a643:	5b                   	pop    %ebx
 804a644:	5e                   	pop    %esi
 804a645:	5d                   	pop    %ebp
 804a646:	c3                   	ret    

0804a647 <do_rule_part>:
 804a647:	55                   	push   %ebp
 804a648:	89 e5                	mov    %esp,%ebp
 804a64a:	57                   	push   %edi
 804a64b:	56                   	push   %esi
 804a64c:	53                   	push   %ebx
 804a64d:	83 ec 3c             	sub    $0x3c,%esp
 804a650:	89 4d c4             	mov    %ecx,-0x3c(%ebp)
 804a653:	8b 4d 10             	mov    0x10(%ebp),%ecx
 804a656:	89 45 cc             	mov    %eax,-0x34(%ebp)
 804a659:	8b 45 08             	mov    0x8(%ebp),%eax
 804a65c:	89 55 c8             	mov    %edx,-0x38(%ebp)
 804a65f:	8b 55 0c             	mov    0xc(%ebp),%edx
 804a662:	83 7d c4 01          	cmpl   $0x1,-0x3c(%ebp)
 804a666:	89 4d b8             	mov    %ecx,-0x48(%ebp)
 804a669:	89 45 c0             	mov    %eax,-0x40(%ebp)
 804a66c:	89 55 bc             	mov    %edx,-0x44(%ebp)
 804a66f:	c7 45 d0 02 00 00 00 	movl   $0x2,-0x30(%ebp)
 804a676:	75 2e                	jne    804a6a6 <do_rule_part+0x5f>
 804a678:	eb 03                	jmp    804a67d <do_rule_part+0x36>
 804a67a:	ff 45 d0             	incl   -0x30(%ebp)
 804a67d:	8b 45 c0             	mov    -0x40(%ebp),%eax
 804a680:	39 45 d0             	cmp    %eax,-0x30(%ebp)
 804a683:	0f 8d b9 00 00 00    	jge    804a742 <do_rule_part+0xfb>
 804a689:	8b 55 d0             	mov    -0x30(%ebp),%edx
 804a68c:	8b 4d b8             	mov    -0x48(%ebp),%ecx
 804a68f:	83 3c 91 00          	cmpl   $0x0,(%ecx,%edx,4)
 804a693:	75 e5                	jne    804a67a <do_rule_part+0x33>
 804a695:	8b 4d bc             	mov    -0x44(%ebp),%ecx
 804a698:	8b 04 91             	mov    (%ecx,%edx,4),%eax
 804a69b:	e8 b9 fc ff ff       	call   804a359 <isTarget>
 804a6a0:	85 c0                	test   %eax,%eax
 804a6a2:	74 d6                	je     804a67a <do_rule_part+0x33>
 804a6a4:	eb 18                	jmp    804a6be <do_rule_part+0x77>
 804a6a6:	83 7d c0 02          	cmpl   $0x2,-0x40(%ebp)
 804a6aa:	c7 45 d0 02 00 00 00 	movl   $0x2,-0x30(%ebp)
 804a6b1:	c7 45 d8 00 00 00 00 	movl   $0x0,-0x28(%ebp)
 804a6b8:	0f 8e 8b 00 00 00    	jle    804a749 <do_rule_part+0x102>
 804a6be:	8b 45 d0             	mov    -0x30(%ebp),%eax
 804a6c1:	8b 55 bc             	mov    -0x44(%ebp),%edx
 804a6c4:	8b 1c 82             	mov    (%edx,%eax,4),%ebx
 804a6c7:	80 3b 2d             	cmpb   $0x2d,(%ebx)
 804a6ca:	75 76                	jne    804a742 <do_rule_part+0xfb>
 804a6cc:	89 d8                	mov    %ebx,%eax
 804a6ce:	e8 86 fc ff ff       	call   804a359 <isTarget>
 804a6d3:	85 c0                	test   %eax,%eax
 804a6d5:	75 6b                	jne    804a742 <do_rule_part+0xfb>
 804a6d7:	50                   	push   %eax
 804a6d8:	50                   	push   %eax
 804a6d9:	68 c8 6a 06 08       	push   $0x8066ac8
 804a6de:	53                   	push   %ebx
 804a6df:	e8 08 ee ff ff       	call   80494ec <strcmp@plt>
 804a6e4:	83 c4 10             	add    $0x10,%esp
 804a6e7:	85 c0                	test   %eax,%eax
 804a6e9:	74 57                	je     804a742 <do_rule_part+0xfb>
 804a6eb:	83 7d cc 00          	cmpl   $0x0,-0x34(%ebp)
 804a6ef:	74 24                	je     804a715 <do_rule_part+0xce>
 804a6f1:	50                   	push   %eax
 804a6f2:	ff 75 cc             	pushl  -0x34(%ebp)
 804a6f5:	68 9a 30 07 08       	push   $0x807309a
 804a6fa:	68 cb 6a 06 08       	push   $0x8066acb
 804a6ff:	e8 d8 eb ff ff       	call   80492dc <printf@plt>
 804a704:	ba e9 d9 06 08       	mov    $0x806d9e9,%edx
 804a709:	b8 37 e2 06 08       	mov    $0x806e237,%eax
 804a70e:	e8 bd fd ff ff       	call   804a4d0 <xmlAttrS>
 804a713:	eb 15                	jmp    804a72a <do_rule_part+0xe3>
 804a715:	50                   	push   %eax
 804a716:	68 e9 d9 06 08       	push   $0x806d9e9
 804a71b:	68 9a 30 07 08       	push   $0x807309a
 804a720:	68 cb 6a 06 08       	push   $0x8066acb
 804a725:	e8 b2 eb ff ff       	call   80492dc <printf@plt>
 804a72a:	c7 04 24 b5 6b 06 08 	movl   $0x8066bb5,(%esp)
 804a731:	e8 e6 ec ff ff       	call   804941c <puts@plt>
 804a736:	83 c4 10             	add    $0x10,%esp
 804a739:	c7 45 d8 e9 d9 06 08 	movl   $0x806d9e9,-0x28(%ebp)
 804a740:	eb 07                	jmp    804a749 <do_rule_part+0x102>
 804a742:	c7 45 d8 00 00 00 00 	movl   $0x0,-0x28(%ebp)
 804a749:	c6 45 d7 00          	movb   $0x0,-0x29(%ebp)
 804a74d:	bb c9 67 06 08       	mov    $0x80667c9,%ebx
 804a752:	31 ff                	xor    %edi,%edi
 804a754:	e9 8a 05 00 00       	jmp    804ace3 <do_rule_part+0x69c>
 804a759:	83 7d c4 ff          	cmpl   $0xffffffff,-0x3c(%ebp)
 804a75d:	75 1f                	jne    804a77e <do_rule_part+0x137>
 804a75f:	8b 4d d0             	mov    -0x30(%ebp),%ecx
 804a762:	8b 45 b8             	mov    -0x48(%ebp),%eax
 804a765:	83 3c 88 00          	cmpl   $0x0,(%eax,%ecx,4)
 804a769:	75 13                	jne    804a77e <do_rule_part+0x137>
 804a76b:	8b 55 bc             	mov    -0x44(%ebp),%edx
 804a76e:	8b 04 8a             	mov    (%edx,%ecx,4),%eax
 804a771:	e8 e3 fb ff ff       	call   804a359 <isTarget>
 804a776:	85 c0                	test   %eax,%eax
 804a778:	0f 85 71 05 00 00    	jne    804acef <do_rule_part+0x6a8>
 804a77e:	8b 4d d0             	mov    -0x30(%ebp),%ecx
 804a781:	8b 45 b8             	mov    -0x48(%ebp),%eax
 804a784:	c1 e1 02             	shl    $0x2,%ecx
 804a787:	01 c8                	add    %ecx,%eax
 804a789:	83 38 00             	cmpl   $0x0,(%eax)
 804a78c:	89 4d e0             	mov    %ecx,-0x20(%ebp)
 804a78f:	89 45 e4             	mov    %eax,-0x1c(%ebp)
 804a792:	0f 85 d6 04 00 00    	jne    804ac6e <do_rule_part+0x627>
 804a798:	8b 55 bc             	mov    -0x44(%ebp),%edx
 804a79b:	01 ca                	add    %ecx,%edx
 804a79d:	8b 32                	mov    (%edx),%esi
 804a79f:	89 55 e8             	mov    %edx,-0x18(%ebp)
 804a7a2:	50                   	push   %eax
 804a7a3:	50                   	push   %eax
 804a7a4:	68 ad b6 06 08       	push   $0x806b6ad
 804a7a9:	56                   	push   %esi
 804a7aa:	e8 3d ed ff ff       	call   80494ec <strcmp@plt>
 804a7af:	83 c4 10             	add    $0x10,%esp
 804a7b2:	85 c0                	test   %eax,%eax
 804a7b4:	75 2f                	jne    804a7e5 <do_rule_part+0x19e>
 804a7b6:	8b 45 d0             	mov    -0x30(%ebp),%eax
 804a7b9:	40                   	inc    %eax
 804a7ba:	3b 45 c0             	cmp    -0x40(%ebp),%eax
 804a7bd:	7d 19                	jge    804a7d8 <do_rule_part+0x191>
 804a7bf:	8b 4d bc             	mov    -0x44(%ebp),%ecx
 804a7c2:	8b 04 81             	mov    (%ecx,%eax,4),%eax
 804a7c5:	80 38 2d             	cmpb   $0x2d,(%eax)
 804a7c8:	75 0e                	jne    804a7d8 <do_rule_part+0x191>
 804a7ca:	c6 45 d7 21          	movb   $0x21,-0x29(%ebp)
 804a7ce:	bb a1 30 07 08       	mov    $0x80730a1,%ebx
 804a7d3:	e9 08 05 00 00       	jmp    804ace0 <do_rule_part+0x699>
 804a7d8:	50                   	push   %eax
 804a7d9:	56                   	push   %esi
 804a7da:	53                   	push   %ebx
 804a7db:	68 d2 6a 06 08       	push   $0x8066ad2
 804a7e0:	e9 ee 04 00 00       	jmp    804acd3 <do_rule_part+0x68c>
 804a7e5:	89 f0                	mov    %esi,%eax
 804a7e7:	e8 6d fb ff ff       	call   804a359 <isTarget>
 804a7ec:	85 c0                	test   %eax,%eax
 804a7ee:	0f 84 5f 02 00 00    	je     804aa53 <do_rule_part+0x40c>
 804a7f4:	8b 55 bc             	mov    -0x44(%ebp),%edx
 804a7f7:	8b 45 d0             	mov    -0x30(%ebp),%eax
 804a7fa:	8b 44 82 04          	mov    0x4(%edx,%eax,4),%eax
 804a7fe:	89 45 ec             	mov    %eax,-0x14(%ebp)
 804a801:	51                   	push   %ecx
 804a802:	51                   	push   %ecx
 804a803:	50                   	push   %eax
 804a804:	68 c0 a7 07 08       	push   $0x807a7c0
 804a809:	e8 de ec ff ff       	call   80494ec <strcmp@plt>
 804a80e:	83 c4 10             	add    $0x10,%esp
 804a811:	85 c0                	test   %eax,%eax
 804a813:	74 38                	je     804a84d <do_rule_part+0x206>
 804a815:	8b 15 58 9b 07 08    	mov    0x8079b58,%edx
 804a81b:	be e4 a7 07 08       	mov    $0x807a7e4,%esi
 804a820:	31 db                	xor    %ebx,%ebx
 804a822:	89 55 dc             	mov    %edx,-0x24(%ebp)
 804a825:	eb 1c                	jmp    804a843 <do_rule_part+0x1fc>
 804a827:	8b 06                	mov    (%esi),%eax
 804a829:	85 c0                	test   %eax,%eax
 804a82b:	74 12                	je     804a83f <do_rule_part+0x1f8>
 804a82d:	52                   	push   %edx
 804a82e:	52                   	push   %edx
 804a82f:	ff 75 ec             	pushl  -0x14(%ebp)
 804a832:	50                   	push   %eax
 804a833:	e8 b4 ec ff ff       	call   80494ec <strcmp@plt>
 804a838:	83 c4 10             	add    $0x10,%esp
 804a83b:	85 c0                	test   %eax,%eax
 804a83d:	74 0e                	je     804a84d <do_rule_part+0x206>
 804a83f:	43                   	inc    %ebx
 804a840:	83 c6 1c             	add    $0x1c,%esi
 804a843:	3b 5d dc             	cmp    -0x24(%ebp),%ebx
 804a846:	7c df                	jl     804a827 <do_rule_part+0x1e0>
 804a848:	e9 32 02 00 00       	jmp    804aa7f <do_rule_part+0x438>
 804a84d:	8b 45 d0             	mov    -0x30(%ebp),%eax
 804a850:	83 c0 02             	add    $0x2,%eax
 804a853:	3b 45 c0             	cmp    -0x40(%ebp),%eax
 804a856:	0f 8c 23 02 00 00    	jl     804aa7f <do_rule_part+0x438>
 804a85c:	ff 45 d0             	incl   -0x30(%ebp)
 804a85f:	8b 4d c0             	mov    -0x40(%ebp),%ecx
 804a862:	39 4d d0             	cmp    %ecx,-0x30(%ebp)
 804a865:	0f 8d 84 04 00 00    	jge    804acef <do_rule_part+0x6a8>
 804a86b:	85 ff                	test   %edi,%edi
 804a86d:	74 19                	je     804a888 <do_rule_part+0x241>
 804a86f:	8b 45 c8             	mov    -0x38(%ebp),%eax
 804a872:	85 c0                	test   %eax,%eax
 804a874:	75 02                	jne    804a878 <do_rule_part+0x231>
 804a876:	89 f8                	mov    %edi,%eax
 804a878:	53                   	push   %ebx
 804a879:	53                   	push   %ebx
 804a87a:	50                   	push   %eax
 804a87b:	68 d7 6a 06 08       	push   $0x8066ad7
 804a880:	e8 57 ea ff ff       	call   80492dc <printf@plt>
 804a885:	83 c4 10             	add    $0x10,%esp
 804a888:	83 7d d8 00          	cmpl   $0x0,-0x28(%ebp)
 804a88c:	74 2e                	je     804a8bc <do_rule_part+0x275>
 804a88e:	51                   	push   %ecx
 804a88f:	51                   	push   %ecx
 804a890:	68 9a 30 07 08       	push   $0x807309a
 804a895:	68 25 40 07 08       	push   $0x8074025
 804a89a:	e8 3d ea ff ff       	call   80492dc <printf@plt>
 804a89f:	8b 45 cc             	mov    -0x34(%ebp),%eax
 804a8a2:	83 c4 10             	add    $0x10,%esp
 804a8a5:	85 c0                	test   %eax,%eax
 804a8a7:	75 03                	jne    804a8ac <do_rule_part+0x265>
 804a8a9:	8b 45 d8             	mov    -0x28(%ebp),%eax
 804a8ac:	52                   	push   %edx
 804a8ad:	52                   	push   %edx
 804a8ae:	50                   	push   %eax
 804a8af:	68 d7 6a 06 08       	push   $0x8066ad7
 804a8b4:	e8 23 ea ff ff       	call   80492dc <printf@plt>
 804a8b9:	83 c4 10             	add    $0x10,%esp
 804a8bc:	8b 45 e8             	mov    -0x18(%ebp),%eax
 804a8bf:	8b 18                	mov    (%eax),%ebx
 804a8c1:	50                   	push   %eax
 804a8c2:	50                   	push   %eax
 804a8c3:	68 57 6a 06 08       	push   $0x8066a57
 804a8c8:	53                   	push   %ebx
 804a8c9:	e8 1e ec ff ff       	call   80494ec <strcmp@plt>
 804a8ce:	83 c4 10             	add    $0x10,%esp
 804a8d1:	85 c0                	test   %eax,%eax
 804a8d3:	74 18                	je     804a8ed <do_rule_part+0x2a6>
 804a8d5:	50                   	push   %eax
 804a8d6:	50                   	push   %eax
 804a8d7:	68 5a 6a 06 08       	push   $0x8066a5a
 804a8dc:	53                   	push   %ebx
 804a8dd:	e8 0a ec ff ff       	call   80494ec <strcmp@plt>
 804a8e2:	83 c4 10             	add    $0x10,%esp
 804a8e5:	85 c0                	test   %eax,%eax
 804a8e7:	0f 85 b2 00 00 00    	jne    804a99f <do_rule_part+0x358>
 804a8ed:	83 7d cc 00          	cmpl   $0x0,-0x34(%ebp)
 804a8f1:	74 24                	je     804a917 <do_rule_part+0x2d0>
 804a8f3:	50                   	push   %eax
 804a8f4:	ff 75 cc             	pushl  -0x34(%ebp)
 804a8f7:	68 9a 30 07 08       	push   $0x807309a
 804a8fc:	68 cb 6a 06 08       	push   $0x8066acb
 804a901:	e8 d6 e9 ff ff       	call   80492dc <printf@plt>
 804a906:	ba 5c 6a 06 08       	mov    $0x8066a5c,%edx
 804a90b:	b8 37 e2 06 08       	mov    $0x806e237,%eax
 804a910:	e8 bb fb ff ff       	call   804a4d0 <xmlAttrS>
 804a915:	eb 15                	jmp    804a92c <do_rule_part+0x2e5>
 804a917:	50                   	push   %eax
 804a918:	68 5c 6a 06 08       	push   $0x8066a5c
 804a91d:	68 9a 30 07 08       	push   $0x807309a
 804a922:	68 cb 6a 06 08       	push   $0x8066acb
 804a927:	e8 b0 e9 ff ff       	call   80492dc <printf@plt>
 804a92c:	c7 04 24 b5 6b 06 08 	movl   $0x8066bb5,(%esp)
 804a933:	e8 e4 ea ff ff       	call   804941c <puts@plt>
 804a938:	8b 55 d0             	mov    -0x30(%ebp),%edx
 804a93b:	83 c4 10             	add    $0x10,%esp
 804a93e:	8b 4d bc             	mov    -0x44(%ebp),%ecx
 804a941:	83 7d c8 00          	cmpl   $0x0,-0x38(%ebp)
 804a945:	8d 1c 91             	lea    (%ecx,%edx,4),%ebx
 804a948:	8b 03                	mov    (%ebx),%eax
 804a94a:	74 21                	je     804a96d <do_rule_part+0x326>
 804a94c:	50                   	push   %eax
 804a94d:	ff 75 c8             	pushl  -0x38(%ebp)
 804a950:	68 98 30 07 08       	push   $0x8073098
 804a955:	68 cb 6a 06 08       	push   $0x8066acb
 804a95a:	e8 7d e9 ff ff       	call   80492dc <printf@plt>
 804a95f:	8b 13                	mov    (%ebx),%edx
 804a961:	b8 37 e2 06 08       	mov    $0x806e237,%eax
 804a966:	e8 65 fb ff ff       	call   804a4d0 <xmlAttrS>
 804a96b:	eb 11                	jmp    804a97e <do_rule_part+0x337>
 804a96d:	57                   	push   %edi
 804a96e:	50                   	push   %eax
 804a96f:	68 98 30 07 08       	push   $0x8073098
 804a974:	68 cb 6a 06 08       	push   $0x8066acb
 804a979:	e8 5e e9 ff ff       	call   80492dc <printf@plt>
 804a97e:	c7 04 24 ed 6a 06 08 	movl   $0x8066aed,(%esp)
 804a985:	bb c9 67 06 08       	mov    $0x80667c9,%ebx
 804a98a:	e8 8d ea ff ff       	call   804941c <puts@plt>
 804a98f:	c6 45 d7 00          	movb   $0x0,-0x29(%ebp)
 804a993:	c7 45 d8 5c 6a 06 08 	movl   $0x8066a5c,-0x28(%ebp)
 804a99a:	e9 ad 00 00 00       	jmp    804aa4c <do_rule_part+0x405>
 804a99f:	83 7d cc 00          	cmpl   $0x0,-0x34(%ebp)
 804a9a3:	74 24                	je     804a9c9 <do_rule_part+0x382>
 804a9a5:	56                   	push   %esi
 804a9a6:	ff 75 cc             	pushl  -0x34(%ebp)
 804a9a9:	68 9a 30 07 08       	push   $0x807309a
 804a9ae:	68 cb 6a 06 08       	push   $0x8066acb
 804a9b3:	e8 24 e9 ff ff       	call   80492dc <printf@plt>
 804a9b8:	ba de 6a 06 08       	mov    $0x8066ade,%edx
 804a9bd:	b8 37 e2 06 08       	mov    $0x806e237,%eax
 804a9c2:	e8 09 fb ff ff       	call   804a4d0 <xmlAttrS>
 804a9c7:	eb 15                	jmp    804a9de <do_rule_part+0x397>
 804a9c9:	53                   	push   %ebx
 804a9ca:	68 de 6a 06 08       	push   $0x8066ade
 804a9cf:	68 9a 30 07 08       	push   $0x807309a
 804a9d4:	68 cb 6a 06 08       	push   $0x8066acb
 804a9d9:	e8 fe e8 ff ff       	call   80492dc <printf@plt>
 804a9de:	c7 04 24 b5 6b 06 08 	movl   $0x8066bb5,(%esp)
 804a9e5:	e8 32 ea ff ff       	call   804941c <puts@plt>
 804a9ea:	8b 45 d0             	mov    -0x30(%ebp),%eax
 804a9ed:	83 c4 10             	add    $0x10,%esp
 804a9f0:	8b 55 bc             	mov    -0x44(%ebp),%edx
 804a9f3:	83 7d c8 00          	cmpl   $0x0,-0x38(%ebp)
 804a9f7:	8d 1c 82             	lea    (%edx,%eax,4),%ebx
 804a9fa:	8b 03                	mov    (%ebx),%eax
 804a9fc:	74 21                	je     804aa1f <do_rule_part+0x3d8>
 804a9fe:	51                   	push   %ecx
 804a9ff:	ff 75 c8             	pushl  -0x38(%ebp)
 804aa02:	68 98 30 07 08       	push   $0x8073098
 804aa07:	68 cb 6a 06 08       	push   $0x8066acb
 804aa0c:	e8 cb e8 ff ff       	call   80492dc <printf@plt>
 804aa11:	8b 13                	mov    (%ebx),%edx
 804aa13:	b8 37 e2 06 08       	mov    $0x806e237,%eax
 804aa18:	e8 b3 fa ff ff       	call   804a4d0 <xmlAttrS>
 804aa1d:	eb 11                	jmp    804aa30 <do_rule_part+0x3e9>
 804aa1f:	52                   	push   %edx
 804aa20:	50                   	push   %eax
 804aa21:	68 98 30 07 08       	push   $0x8073098
 804aa26:	68 cb 6a 06 08       	push   $0x8066acb
 804aa2b:	e8 ac e8 ff ff       	call   80492dc <printf@plt>
 804aa30:	c7 04 24 ed 6a 06 08 	movl   $0x8066aed,(%esp)
 804aa37:	bb c9 67 06 08       	mov    $0x80667c9,%ebx
 804aa3c:	e8 db e9 ff ff       	call   804941c <puts@plt>
 804aa41:	c6 45 d7 00          	movb   $0x0,-0x29(%ebp)
 804aa45:	c7 45 d8 de 6a 06 08 	movl   $0x8066ade,-0x28(%ebp)
 804aa4c:	31 ff                	xor    %edi,%edi
 804aa4e:	e9 8a 02 00 00       	jmp    804acdd <do_rule_part+0x696>
 804aa53:	50                   	push   %eax
 804aa54:	50                   	push   %eax
 804aa55:	68 c8 6a 06 08       	push   $0x8066ac8
 804aa5a:	56                   	push   %esi
 804aa5b:	e8 8c ea ff ff       	call   80494ec <strcmp@plt>
 804aa60:	83 c4 10             	add    $0x10,%esp
 804aa63:	85 c0                	test   %eax,%eax
 804aa65:	74 18                	je     804aa7f <do_rule_part+0x438>
 804aa67:	50                   	push   %eax
 804aa68:	50                   	push   %eax
 804aa69:	68 e3 6a 06 08       	push   $0x8066ae3
 804aa6e:	56                   	push   %esi
 804aa6f:	e8 78 ea ff ff       	call   80494ec <strcmp@plt>
 804aa74:	83 c4 10             	add    $0x10,%esp
 804aa77:	85 c0                	test   %eax,%eax
 804aa79:	0f 85 25 01 00 00    	jne    804aba4 <do_rule_part+0x55d>
 804aa7f:	ff 45 d0             	incl   -0x30(%ebp)
 804aa82:	8b 4d c0             	mov    -0x40(%ebp),%ecx
 804aa85:	39 4d d0             	cmp    %ecx,-0x30(%ebp)
 804aa88:	0f 8d 61 02 00 00    	jge    804acef <do_rule_part+0x6a8>
 804aa8e:	85 ff                	test   %edi,%edi
 804aa90:	74 19                	je     804aaab <do_rule_part+0x464>
 804aa92:	8b 45 c8             	mov    -0x38(%ebp),%eax
 804aa95:	85 c0                	test   %eax,%eax
 804aa97:	75 02                	jne    804aa9b <do_rule_part+0x454>
 804aa99:	89 f8                	mov    %edi,%eax
 804aa9b:	53                   	push   %ebx
 804aa9c:	53                   	push   %ebx
 804aa9d:	50                   	push   %eax
 804aa9e:	68 d7 6a 06 08       	push   $0x8066ad7
 804aaa3:	e8 34 e8 ff ff       	call   80492dc <printf@plt>
 804aaa8:	83 c4 10             	add    $0x10,%esp
 804aaab:	83 7d d8 00          	cmpl   $0x0,-0x28(%ebp)
 804aaaf:	74 2e                	je     804aadf <do_rule_part+0x498>
 804aab1:	51                   	push   %ecx
 804aab2:	51                   	push   %ecx
 804aab3:	68 9a 30 07 08       	push   $0x807309a
 804aab8:	68 25 40 07 08       	push   $0x8074025
 804aabd:	e8 1a e8 ff ff       	call   80492dc <printf@plt>
 804aac2:	8b 45 cc             	mov    -0x34(%ebp),%eax
 804aac5:	83 c4 10             	add    $0x10,%esp
 804aac8:	85 c0                	test   %eax,%eax
 804aaca:	75 03                	jne    804aacf <do_rule_part+0x488>
 804aacc:	8b 45 d8             	mov    -0x28(%ebp),%eax
 804aacf:	52                   	push   %edx
 804aad0:	52                   	push   %edx
 804aad1:	50                   	push   %eax
 804aad2:	68 d7 6a 06 08       	push   $0x8066ad7
 804aad7:	e8 00 e8 ff ff       	call   80492dc <printf@plt>
 804aadc:	83 c4 10             	add    $0x10,%esp
 804aadf:	8b 45 d0             	mov    -0x30(%ebp),%eax
 804aae2:	8b 55 bc             	mov    -0x44(%ebp),%edx
 804aae5:	83 7d cc 00          	cmpl   $0x0,-0x34(%ebp)
 804aae9:	8d 1c 82             	lea    (%edx,%eax,4),%ebx
 804aaec:	8b 0b                	mov    (%ebx),%ecx
 804aaee:	89 4d d8             	mov    %ecx,-0x28(%ebp)
 804aaf1:	74 21                	je     804ab14 <do_rule_part+0x4cd>
 804aaf3:	50                   	push   %eax
 804aaf4:	ff 75 cc             	pushl  -0x34(%ebp)
 804aaf7:	68 9a 30 07 08       	push   $0x807309a
 804aafc:	68 cb 6a 06 08       	push   $0x8066acb
 804ab01:	e8 d6 e7 ff ff       	call   80492dc <printf@plt>
 804ab06:	8b 13                	mov    (%ebx),%edx
 804ab08:	b8 37 e2 06 08       	mov    $0x806e237,%eax
 804ab0d:	e8 be f9 ff ff       	call   804a4d0 <xmlAttrS>
 804ab12:	eb 13                	jmp    804ab27 <do_rule_part+0x4e0>
 804ab14:	57                   	push   %edi
 804ab15:	ff 75 d8             	pushl  -0x28(%ebp)
 804ab18:	68 9a 30 07 08       	push   $0x807309a
 804ab1d:	68 cb 6a 06 08       	push   $0x8066acb
 804ab22:	e8 b5 e7 ff ff       	call   80492dc <printf@plt>
 804ab27:	8b 45 d0             	mov    -0x30(%ebp),%eax
 804ab2a:	83 c4 10             	add    $0x10,%esp
 804ab2d:	40                   	inc    %eax
 804ab2e:	3b 45 c0             	cmp    -0x40(%ebp),%eax
 804ab31:	7d 42                	jge    804ab75 <do_rule_part+0x52e>
 804ab33:	8b 55 b8             	mov    -0x48(%ebp),%edx
 804ab36:	83 3c 82 00          	cmpl   $0x0,(%edx,%eax,4)
 804ab3a:	75 5b                	jne    804ab97 <do_rule_part+0x550>
 804ab3c:	8b 4d bc             	mov    -0x44(%ebp),%ecx
 804ab3f:	8b 1c 81             	mov    (%ecx,%eax,4),%ebx
 804ab42:	89 d8                	mov    %ebx,%eax
 804ab44:	e8 10 f8 ff ff       	call   804a359 <isTarget>
 804ab49:	85 c0                	test   %eax,%eax
 804ab4b:	75 28                	jne    804ab75 <do_rule_part+0x52e>
 804ab4d:	56                   	push   %esi
 804ab4e:	56                   	push   %esi
 804ab4f:	68 c8 6a 06 08       	push   $0x8066ac8
 804ab54:	53                   	push   %ebx
 804ab55:	e8 92 e9 ff ff       	call   80494ec <strcmp@plt>
 804ab5a:	83 c4 10             	add    $0x10,%esp
 804ab5d:	85 c0                	test   %eax,%eax
 804ab5f:	74 14                	je     804ab75 <do_rule_part+0x52e>
 804ab61:	51                   	push   %ecx
 804ab62:	51                   	push   %ecx
 804ab63:	68 e3 6a 06 08       	push   $0x8066ae3
 804ab68:	53                   	push   %ebx
 804ab69:	e8 7e e9 ff ff       	call   80494ec <strcmp@plt>
 804ab6e:	83 c4 10             	add    $0x10,%esp
 804ab71:	85 c0                	test   %eax,%eax
 804ab73:	75 22                	jne    804ab97 <do_rule_part+0x550>
 804ab75:	83 ec 0c             	sub    $0xc,%esp
 804ab78:	bb c9 67 06 08       	mov    $0x80667c9,%ebx
 804ab7d:	68 ec 6a 06 08       	push   $0x8066aec
 804ab82:	e8 95 e8 ff ff       	call   804941c <puts@plt>
 804ab87:	c6 45 d7 00          	movb   $0x0,-0x29(%ebp)
 804ab8b:	c7 45 d8 00 00 00 00 	movl   $0x0,-0x28(%ebp)
 804ab92:	e9 b5 fe ff ff       	jmp    804aa4c <do_rule_part+0x405>
 804ab97:	83 ec 0c             	sub    $0xc,%esp
 804ab9a:	68 b5 6b 06 08       	push   $0x8066bb5
 804ab9f:	e9 a0 00 00 00       	jmp    804ac44 <do_rule_part+0x5fd>
 804aba4:	80 3e 2d             	cmpb   $0x2d,(%esi)
 804aba7:	0f 85 c1 00 00 00    	jne    804ac6e <do_rule_part+0x627>
 804abad:	85 ff                	test   %edi,%edi
 804abaf:	74 19                	je     804abca <do_rule_part+0x583>
 804abb1:	8b 45 c8             	mov    -0x38(%ebp),%eax
 804abb4:	85 c0                	test   %eax,%eax
 804abb6:	75 02                	jne    804abba <do_rule_part+0x573>
 804abb8:	89 f8                	mov    %edi,%eax
 804abba:	52                   	push   %edx
 804abbb:	52                   	push   %edx
 804abbc:	50                   	push   %eax
 804abbd:	68 d7 6a 06 08       	push   $0x8066ad7
 804abc2:	e8 15 e7 ff ff       	call   80492dc <printf@plt>
 804abc7:	83 c4 10             	add    $0x10,%esp
 804abca:	8b 45 e8             	mov    -0x18(%ebp),%eax
 804abcd:	8b 18                	mov    (%eax),%ebx
 804abcf:	eb 01                	jmp    804abd2 <do_rule_part+0x58b>
 804abd1:	43                   	inc    %ebx
 804abd2:	80 3b 2d             	cmpb   $0x2d,(%ebx)
 804abd5:	74 fa                	je     804abd1 <do_rule_part+0x58a>
 804abd7:	83 7d c8 00          	cmpl   $0x0,-0x38(%ebp)
 804abdb:	74 21                	je     804abfe <do_rule_part+0x5b7>
 804abdd:	50                   	push   %eax
 804abde:	ff 75 c8             	pushl  -0x38(%ebp)
 804abe1:	68 98 30 07 08       	push   $0x8073098
 804abe6:	68 cb 6a 06 08       	push   $0x8066acb
 804abeb:	e8 ec e6 ff ff       	call   80492dc <printf@plt>
 804abf0:	89 da                	mov    %ebx,%edx
 804abf2:	b8 37 e2 06 08       	mov    $0x806e237,%eax
 804abf7:	e8 d4 f8 ff ff       	call   804a4d0 <xmlAttrS>
 804abfc:	eb 11                	jmp    804ac0f <do_rule_part+0x5c8>
 804abfe:	57                   	push   %edi
 804abff:	53                   	push   %ebx
 804ac00:	68 98 30 07 08       	push   $0x8073098
 804ac05:	68 cb 6a 06 08       	push   $0x8066acb
 804ac0a:	e8 cd e6 ff ff       	call   80492dc <printf@plt>
 804ac0f:	83 c4 10             	add    $0x10,%esp
 804ac12:	80 7d d7 00          	cmpb   $0x0,-0x29(%ebp)
 804ac16:	74 10                	je     804ac28 <do_rule_part+0x5e1>
 804ac18:	83 ec 0c             	sub    $0xc,%esp
 804ac1b:	68 f0 6a 06 08       	push   $0x8066af0
 804ac20:	e8 b7 e6 ff ff       	call   80492dc <printf@plt>
 804ac25:	83 c4 10             	add    $0x10,%esp
 804ac28:	8b 45 d0             	mov    -0x30(%ebp),%eax
 804ac2b:	40                   	inc    %eax
 804ac2c:	3b 45 c0             	cmp    -0x40(%ebp),%eax
 804ac2f:	7d 0b                	jge    804ac3c <do_rule_part+0x5f5>
 804ac31:	8b 55 bc             	mov    -0x44(%ebp),%edx
 804ac34:	8b 04 82             	mov    (%edx,%eax,4),%eax
 804ac37:	80 38 2d             	cmpb   $0x2d,(%eax)
 804ac3a:	75 1b                	jne    804ac57 <do_rule_part+0x610>
 804ac3c:	83 ec 0c             	sub    $0xc,%esp
 804ac3f:	68 ec 6a 06 08       	push   $0x8066aec
 804ac44:	e8 d3 e7 ff ff       	call   804941c <puts@plt>
 804ac49:	bb c9 67 06 08       	mov    $0x80667c9,%ebx
 804ac4e:	c6 45 d7 00          	movb   $0x0,-0x29(%ebp)
 804ac52:	e9 f5 fd ff ff       	jmp    804aa4c <do_rule_part+0x405>
 804ac57:	83 ec 0c             	sub    $0xc,%esp
 804ac5a:	89 df                	mov    %ebx,%edi
 804ac5c:	6a 3e                	push   $0x3e
 804ac5e:	bb c9 67 06 08       	mov    $0x80667c9,%ebx
 804ac63:	e8 84 e4 ff ff       	call   80490ec <putchar@plt>
 804ac68:	c6 45 d7 00          	movb   $0x0,-0x29(%ebp)
 804ac6c:	eb 6f                	jmp    804acdd <do_rule_part+0x696>
 804ac6e:	8b 4d bc             	mov    -0x44(%ebp),%ecx
 804ac71:	03 4d e0             	add    -0x20(%ebp),%ecx
 804ac74:	89 4d f0             	mov    %ecx,-0x10(%ebp)
 804ac77:	56                   	push   %esi
 804ac78:	56                   	push   %esi
 804ac79:	6a 20                	push   $0x20
 804ac7b:	ff 31                	pushl  (%ecx)
 804ac7d:	e8 2a e4 ff ff       	call   80490ac <strchr@plt>
 804ac82:	5a                   	pop    %edx
 804ac83:	59                   	pop    %ecx
 804ac84:	53                   	push   %ebx
 804ac85:	89 c6                	mov    %eax,%esi
 804ac87:	68 25 40 07 08       	push   $0x8074025
 804ac8c:	e8 4b e6 ff ff       	call   80492dc <printf@plt>
 804ac91:	83 c4 10             	add    $0x10,%esp
 804ac94:	85 f6                	test   %esi,%esi
 804ac96:	75 08                	jne    804aca0 <do_rule_part+0x659>
 804ac98:	8b 45 e4             	mov    -0x1c(%ebp),%eax
 804ac9b:	83 38 00             	cmpl   $0x0,(%eax)
 804ac9e:	74 10                	je     804acb0 <do_rule_part+0x669>
 804aca0:	83 ec 0c             	sub    $0xc,%esp
 804aca3:	68 82 6a 06 08       	push   $0x8066a82
 804aca8:	e8 2f e6 ff ff       	call   80492dc <printf@plt>
 804acad:	83 c4 10             	add    $0x10,%esp
 804acb0:	8b 55 f0             	mov    -0x10(%ebp),%edx
 804acb3:	8b 02                	mov    (%edx),%eax
 804acb5:	e8 9e f7 ff ff       	call   804a458 <xmlEncode>
 804acba:	85 f6                	test   %esi,%esi
 804acbc:	75 0d                	jne    804accb <do_rule_part+0x684>
 804acbe:	8b 4d e4             	mov    -0x1c(%ebp),%ecx
 804acc1:	bb a1 30 07 08       	mov    $0x80730a1,%ebx
 804acc6:	83 39 00             	cmpl   $0x0,(%ecx)
 804acc9:	74 15                	je     804ace0 <do_rule_part+0x699>
 804accb:	83 ec 0c             	sub    $0xc,%esp
 804acce:	68 82 6a 06 08       	push   $0x8066a82
 804acd3:	e8 04 e6 ff ff       	call   80492dc <printf@plt>
 804acd8:	bb a1 30 07 08       	mov    $0x80730a1,%ebx
 804acdd:	83 c4 10             	add    $0x10,%esp
 804ace0:	ff 45 d0             	incl   -0x30(%ebp)
 804ace3:	8b 45 c0             	mov    -0x40(%ebp),%eax
 804ace6:	39 45 d0             	cmp    %eax,-0x30(%ebp)
 804ace9:	0f 8c 6a fa ff ff    	jl     804a759 <do_rule_part+0x112>
 804acef:	85 ff                	test   %edi,%edi
 804acf1:	74 1b                	je     804ad0e <do_rule_part+0x6c7>
 804acf3:	83 7d c8 00          	cmpl   $0x0,-0x38(%ebp)
 804acf7:	75 03                	jne    804acfc <do_rule_part+0x6b5>
 804acf9:	89 7d c8             	mov    %edi,-0x38(%ebp)
 804acfc:	50                   	push   %eax
 804acfd:	50                   	push   %eax
 804acfe:	ff 75 c8             	pushl  -0x38(%ebp)
 804ad01:	68 d7 6a 06 08       	push   $0x8066ad7
 804ad06:	e8 d1 e5 ff ff       	call   80492dc <printf@plt>
 804ad0b:	83 c4 10             	add    $0x10,%esp
 804ad0e:	83 7d d8 00          	cmpl   $0x0,-0x28(%ebp)
 804ad12:	74 39                	je     804ad4d <do_rule_part+0x706>
 804ad14:	50                   	push   %eax
 804ad15:	50                   	push   %eax
 804ad16:	68 9a 30 07 08       	push   $0x807309a
 804ad1b:	68 25 40 07 08       	push   $0x8074025
 804ad20:	e8 b7 e5 ff ff       	call   80492dc <printf@plt>
 804ad25:	83 c4 10             	add    $0x10,%esp
 804ad28:	83 7d cc 00          	cmpl   $0x0,-0x34(%ebp)
 804ad2c:	75 06                	jne    804ad34 <do_rule_part+0x6ed>
 804ad2e:	8b 55 d8             	mov    -0x28(%ebp),%edx
 804ad31:	89 55 cc             	mov    %edx,-0x34(%ebp)
 804ad34:	8b 4d cc             	mov    -0x34(%ebp),%ecx
 804ad37:	c7 45 08 d7 6a 06 08 	movl   $0x8066ad7,0x8(%ebp)
 804ad3e:	89 4d 0c             	mov    %ecx,0xc(%ebp)
 804ad41:	8d 65 f4             	lea    -0xc(%ebp),%esp
 804ad44:	5b                   	pop    %ebx
 804ad45:	5e                   	pop    %esi
 804ad46:	5f                   	pop    %edi
 804ad47:	5d                   	pop    %ebp
 804ad48:	e9 8f e5 ff ff       	jmp    80492dc <printf@plt>
 804ad4d:	8d 65 f4             	lea    -0xc(%ebp),%esp
 804ad50:	5b                   	pop    %ebx
 804ad51:	5e                   	pop    %esi
 804ad52:	5f                   	pop    %edi
 804ad53:	5d                   	pop    %ebp
 804ad54:	c3                   	ret    

0804ad55 <iptables_xml_main>:
 804ad55:	55                   	push   %ebp
 804ad56:	89 e5                	mov    %esp,%ebp
 804ad58:	57                   	push   %edi
 804ad59:	56                   	push   %esi
 804ad5a:	53                   	push   %ebx
 804ad5b:	81 ec 48 2c 00 00    	sub    $0x2c48,%esp
 804ad61:	8b 5d 08             	mov    0x8(%ebp),%ebx
 804ad64:	68 78 72 07 08       	push   $0x8077278
 804ad69:	8b 75 0c             	mov    0xc(%ebp),%esi
 804ad6c:	c7 05 d0 72 07 08 00 	movl   $0x0,0x80772d0
 804ad73:	00 00 00 
 804ad76:	e8 1d 40 00 00       	call   804ed98 <xtables_set_params>
 804ad7b:	eb 32                	jmp    804adaf <iptables_xml_main+0x5a>
 804ad7d:	83 f8 68             	cmp    $0x68,%eax
 804ad80:	74 32                	je     804adb4 <iptables_xml_main+0x5f>
 804ad82:	83 f8 76             	cmp    $0x76,%eax
 804ad85:	74 11                	je     804ad98 <iptables_xml_main+0x43>
 804ad87:	83 f8 63             	cmp    $0x63,%eax
 804ad8a:	75 38                	jne    804adc4 <iptables_xml_main+0x6f>
 804ad8c:	c7 05 4c 9b 07 08 01 	movl   $0x1,0x8079b4c
 804ad93:	00 00 00 
 804ad96:	eb 2c                	jmp    804adc4 <iptables_xml_main+0x6f>
 804ad98:	83 ec 0c             	sub    $0xc,%esp
 804ad9b:	68 fc 6a 06 08       	push   $0x8066afc
 804ada0:	e8 77 e6 ff ff       	call   804941c <puts@plt>
 804ada5:	c7 05 50 9b 07 08 01 	movl   $0x1,0x8079b50
 804adac:	00 00 00 
 804adaf:	83 c4 10             	add    $0x10,%esp
 804adb2:	eb 10                	jmp    804adc4 <iptables_xml_main+0x6f>
 804adb4:	56                   	push   %esi
 804adb5:	68 18 65 06 08       	push   $0x8066518
 804adba:	68 09 6b 06 08       	push   $0x8066b09
 804adbf:	e9 64 09 00 00       	jmp    804b728 <iptables_xml_main+0x9d3>
 804adc4:	83 ec 0c             	sub    $0xc,%esp
 804adc7:	6a 00                	push   $0x0
 804adc9:	68 90 72 07 08       	push   $0x8077290
 804adce:	68 5b 6b 06 08       	push   $0x8066b5b
 804add3:	56                   	push   %esi
 804add4:	53                   	push   %ebx
 804add5:	e8 42 e4 ff ff       	call   804921c <getopt_long@plt>
 804adda:	83 c4 20             	add    $0x20,%esp
 804addd:	83 f8 ff             	cmp    $0xffffffff,%eax
 804ade0:	75 9b                	jne    804ad7d <iptables_xml_main+0x28>
 804ade2:	8b 15 10 97 07 08    	mov    0x8079710,%edx
 804ade8:	8d 43 ff             	lea    -0x1(%ebx),%eax
 804adeb:	39 c2                	cmp    %eax,%edx
 804aded:	75 4e                	jne    804ae3d <iptables_xml_main+0xe8>
 804adef:	53                   	push   %ebx
 804adf0:	53                   	push   %ebx
 804adf1:	68 f4 0c 07 08       	push   $0x8070cf4
 804adf6:	ff 34 96             	pushl  (%esi,%edx,4)
 804adf9:	e8 1e e3 ff ff       	call   804911c <fopen64@plt>
 804adfe:	83 c4 10             	add    $0x10,%esp
 804ae01:	85 c0                	test   %eax,%eax
 804ae03:	89 85 c0 d3 ff ff    	mov    %eax,-0x2c40(%ebp)
 804ae09:	75 58                	jne    804ae63 <iptables_xml_main+0x10e>
 804ae0b:	e8 bc e1 ff ff       	call   8048fcc <__errno_location@plt>
 804ae10:	83 ec 0c             	sub    $0xc,%esp
 804ae13:	ff 30                	pushl  (%eax)
 804ae15:	e8 e2 e1 ff ff       	call   8048ffc <strerror@plt>
 804ae1a:	50                   	push   %eax
 804ae1b:	a1 10 97 07 08       	mov    0x8079710,%eax
 804ae20:	ff 34 86             	pushl  (%esi,%eax,4)
 804ae23:	68 5f 6b 06 08       	push   $0x8066b5f
 804ae28:	ff 35 14 97 07 08    	pushl  0x8079714
 804ae2e:	e8 29 e5 ff ff       	call   804935c <fprintf@plt>
 804ae33:	83 c4 14             	add    $0x14,%esp
 804ae36:	6a 01                	push   $0x1
 804ae38:	e8 cf e6 ff ff       	call   804950c <exit@plt>
 804ae3d:	39 da                	cmp    %ebx,%edx
 804ae3f:	7d 17                	jge    804ae58 <iptables_xml_main+0x103>
 804ae41:	51                   	push   %ecx
 804ae42:	51                   	push   %ecx
 804ae43:	ff 35 14 97 07 08    	pushl  0x8079714
 804ae49:	68 71 6b 06 08       	push   $0x8066b71
 804ae4e:	e8 59 e1 ff ff       	call   8048fac <fputs@plt>
 804ae53:	e9 db 08 00 00       	jmp    804b733 <iptables_xml_main+0x9de>
 804ae58:	a1 18 97 07 08       	mov    0x8079718,%eax
 804ae5d:	89 85 c0 d3 ff ff    	mov    %eax,-0x2c40(%ebp)
 804ae63:	83 ec 0c             	sub    $0xc,%esp
 804ae66:	68 98 6b 06 08       	push   $0x8066b98
 804ae6b:	e9 fc 00 00 00       	jmp    804af6c <iptables_xml_main+0x217>
 804ae70:	a1 d0 72 07 08       	mov    0x80772d0,%eax
 804ae75:	8a 95 e4 d3 ff ff    	mov    -0x2c1c(%ebp),%dl
 804ae7b:	40                   	inc    %eax
 804ae7c:	80 fa 0a             	cmp    $0xa,%dl
 804ae7f:	a3 d0 72 07 08       	mov    %eax,0x80772d0
 804ae84:	0f 84 a2 07 00 00    	je     804b62c <iptables_xml_main+0x8d7>
 804ae8a:	80 fa 23             	cmp    $0x23,%dl
 804ae8d:	75 0c                	jne    804ae9b <iptables_xml_main+0x146>
 804ae8f:	89 d8                	mov    %ebx,%eax
 804ae91:	e8 94 f5 ff ff       	call   804a42a <xmlComment>
 804ae96:	e9 91 07 00 00       	jmp    804b62c <iptables_xml_main+0x8d7>
 804ae9b:	83 3d 50 9b 07 08 00 	cmpl   $0x0,0x8079b50
 804aea2:	74 23                	je     804aec7 <iptables_xml_main+0x172>
 804aea4:	52                   	push   %edx
 804aea5:	52                   	push   %edx
 804aea6:	50                   	push   %eax
 804aea7:	68 b7 6b 06 08       	push   $0x8066bb7
 804aeac:	e8 2b e4 ff ff       	call   80492dc <printf@plt>
 804aeb1:	89 d8                	mov    %ebx,%eax
 804aeb3:	e8 10 f5 ff ff       	call   804a3c8 <xmlCommentEscape>
 804aeb8:	c7 04 24 67 6a 06 08 	movl   $0x8066a67,(%esp)
 804aebf:	e8 58 e5 ff ff       	call   804941c <puts@plt>
 804aec4:	83 c4 10             	add    $0x10,%esp
 804aec7:	50                   	push   %eax
 804aec8:	50                   	push   %eax
 804aec9:	68 be 67 06 08       	push   $0x80667be
 804aece:	8d 85 e4 d3 ff ff    	lea    -0x2c1c(%ebp),%eax
 804aed4:	50                   	push   %eax
 804aed5:	e8 12 e6 ff ff       	call   80494ec <strcmp@plt>
 804aeda:	83 c4 10             	add    $0x10,%esp
 804aedd:	85 c0                	test   %eax,%eax
 804aedf:	75 13                	jne    804aef4 <iptables_xml_main+0x19f>
 804aee1:	80 3d 9c a7 07 08 00 	cmpb   $0x0,0x807a79c
 804aee8:	74 0a                	je     804aef4 <iptables_xml_main+0x19f>
 804aeea:	e8 d6 f6 ff ff       	call   804a5c5 <closeTable>
 804aeef:	e9 38 07 00 00       	jmp    804b62c <iptables_xml_main+0x8d7>
 804aef4:	8a 85 e4 d3 ff ff    	mov    -0x2c1c(%ebp),%al
 804aefa:	3c 2a                	cmp    $0x2a,%al
 804aefc:	75 78                	jne    804af76 <iptables_xml_main+0x221>
 804aefe:	50                   	push   %eax
 804aeff:	50                   	push   %eax
 804af00:	68 c6 67 06 08       	push   $0x80667c6
 804af05:	8d 85 e5 d3 ff ff    	lea    -0x2c1b(%ebp),%eax
 804af0b:	50                   	push   %eax
 804af0c:	e8 8b e4 ff ff       	call   804939c <strtok@plt>
 804af11:	83 c4 10             	add    $0x10,%esp
 804af14:	85 c0                	test   %eax,%eax
 804af16:	89 c3                	mov    %eax,%ebx
 804af18:	75 16                	jne    804af30 <iptables_xml_main+0x1db>
 804af1a:	ff 35 d0 72 07 08    	pushl  0x80772d0
 804af20:	ff 35 7c 72 07 08    	pushl  0x807727c
 804af26:	68 ca 67 06 08       	push   $0x80667ca
 804af2b:	e9 f1 02 00 00       	jmp    804b221 <iptables_xml_main+0x4cc>
 804af30:	e8 90 f6 ff ff       	call   804a5c5 <closeTable>
 804af35:	57                   	push   %edi
 804af36:	6a 20                	push   $0x20
 804af38:	53                   	push   %ebx
 804af39:	68 9c a7 07 08       	push   $0x807a79c
 804af3e:	e8 99 e1 ff ff       	call   80490dc <strncpy@plt>
 804af43:	c6 05 bc a7 07 08 00 	movb   $0x0,0x807a7bc
 804af4a:	c7 04 24 c5 6b 06 08 	movl   $0x8066bc5,(%esp)
 804af51:	e8 86 e3 ff ff       	call   80492dc <printf@plt>
 804af56:	ba 9c a7 07 08       	mov    $0x807a79c,%edx
 804af5b:	b8 f9 8b 06 08       	mov    $0x8068bf9,%eax
 804af60:	e8 6b f5 ff ff       	call   804a4d0 <xmlAttrS>
 804af65:	c7 04 24 b5 6b 06 08 	movl   $0x8066bb5,(%esp)
 804af6c:	e8 ab e4 ff ff       	call   804941c <puts@plt>
 804af71:	e9 ff 00 00 00       	jmp    804b075 <iptables_xml_main+0x320>
 804af76:	3c 3a                	cmp    $0x3a,%al
 804af78:	0f 85 ff 00 00 00    	jne    804b07d <iptables_xml_main+0x328>
 804af7e:	80 3d 9c a7 07 08 00 	cmpb   $0x0,0x807a79c
 804af85:	0f 84 f2 00 00 00    	je     804b07d <iptables_xml_main+0x328>
 804af8b:	56                   	push   %esi
 804af8c:	56                   	push   %esi
 804af8d:	68 c6 67 06 08       	push   $0x80667c6
 804af92:	8d 85 e5 d3 ff ff    	lea    -0x2c1b(%ebp),%eax
 804af98:	50                   	push   %eax
 804af99:	e8 fe e3 ff ff       	call   804939c <strtok@plt>
 804af9e:	83 c4 10             	add    $0x10,%esp
 804afa1:	85 c0                	test   %eax,%eax
 804afa3:	89 c7                	mov    %eax,%edi
 804afa5:	74 68                	je     804b00f <iptables_xml_main+0x2ba>
 804afa7:	53                   	push   %ebx
 804afa8:	53                   	push   %ebx
 804afa9:	68 c6 67 06 08       	push   $0x80667c6
 804afae:	6a 00                	push   $0x0
 804afb0:	e8 e7 e3 ff ff       	call   804939c <strtok@plt>
 804afb5:	83 c4 10             	add    $0x10,%esp
 804afb8:	85 c0                	test   %eax,%eax
 804afba:	89 c6                	mov    %eax,%esi
 804afbc:	75 16                	jne    804afd4 <iptables_xml_main+0x27f>
 804afbe:	ff 35 d0 72 07 08    	pushl  0x80772d0
 804afc4:	ff 35 7c 72 07 08    	pushl  0x807727c
 804afca:	68 6b 68 06 08       	push   $0x806686b
 804afcf:	e9 4d 02 00 00       	jmp    804b221 <iptables_xml_main+0x4cc>
 804afd4:	51                   	push   %ecx
 804afd5:	51                   	push   %ecx
 804afd6:	68 c6 67 06 08       	push   $0x80667c6
 804afdb:	6a 00                	push   $0x0
 804afdd:	e8 ba e3 ff ff       	call   804939c <strtok@plt>
 804afe2:	83 c4 10             	add    $0x10,%esp
 804afe5:	85 c0                	test   %eax,%eax
 804afe7:	89 c1                	mov    %eax,%ecx
 804afe9:	74 16                	je     804b001 <iptables_xml_main+0x2ac>
 804afeb:	8d 45 ec             	lea    -0x14(%ebp),%eax
 804afee:	50                   	push   %eax
 804afef:	8d 55 e4             	lea    -0x1c(%ebp),%edx
 804aff2:	52                   	push   %edx
 804aff3:	68 87 68 06 08       	push   $0x8066887
 804aff8:	51                   	push   %ecx
 804aff9:	e8 4e e4 ff ff       	call   804944c <sscanf@plt>
 804affe:	83 c4 10             	add    $0x10,%esp
 804b001:	8b 1d 58 9b 07 08    	mov    0x8079b58,%ebx
 804b007:	81 fb ff 27 00 00    	cmp    $0x27ff,%ebx
 804b00d:	7e 16                	jle    804b025 <iptables_xml_main+0x2d0>
 804b00f:	ff 35 d0 72 07 08    	pushl  0x80772d0
 804b015:	ff 35 7c 72 07 08    	pushl  0x807727c
 804b01b:	68 0f 68 06 08       	push   $0x806680f
 804b020:	e9 fc 01 00 00       	jmp    804b221 <iptables_xml_main+0x4cc>
 804b025:	83 ec 0c             	sub    $0xc,%esp
 804b028:	57                   	push   %edi
 804b029:	e8 8e e4 ff ff       	call   80494bc <strdup@plt>
 804b02e:	6b d3 1c             	imul   $0x1c,%ebx,%edx
 804b031:	8b 1d 58 9b 07 08    	mov    0x8079b58,%ebx
 804b037:	89 34 24             	mov    %esi,(%esp)
 804b03a:	8d 75 e4             	lea    -0x1c(%ebp),%esi
 804b03d:	6b db 1c             	imul   $0x1c,%ebx,%ebx
 804b040:	89 82 e4 a7 07 08    	mov    %eax,0x807a7e4(%edx)
 804b046:	e8 71 e4 ff ff       	call   80494bc <strdup@plt>
 804b04b:	b9 04 00 00 00       	mov    $0x4,%ecx
 804b050:	89 83 e8 a7 07 08    	mov    %eax,0x807a7e8(%ebx)
 804b056:	6b 05 58 9b 07 08 1c 	imul   $0x1c,0x8079b58,%eax
 804b05d:	ff 05 58 9b 07 08    	incl   0x8079b58
 804b063:	8d b8 ec a7 07 08    	lea    0x807a7ec(%eax),%edi
 804b069:	f3 a5                	rep movsl %ds:(%esi),%es:(%edi)
 804b06b:	c7 80 fc a7 07 08 00 	movl   $0x0,0x807a7fc(%eax)
 804b072:	00 00 00 
 804b075:	83 c4 10             	add    $0x10,%esp
 804b078:	e9 af 05 00 00       	jmp    804b62c <iptables_xml_main+0x8d7>
 804b07d:	80 3d 9c a7 07 08 00 	cmpb   $0x0,0x807a79c
 804b084:	0f 84 8d 06 00 00    	je     804b717 <iptables_xml_main+0x9c2>
 804b08a:	80 bd e4 d3 ff ff 5b 	cmpb   $0x5b,-0x2c1c(%ebp)
 804b091:	c7 05 54 9b 07 08 00 	movl   $0x0,0x8079b54
 804b098:	00 00 00 
 804b09b:	8d 85 e4 d3 ff ff    	lea    -0x2c1c(%ebp),%eax
 804b0a1:	74 16                	je     804b0b9 <iptables_xml_main+0x364>
 804b0a3:	c7 85 c4 d3 ff ff 00 	movl   $0x0,-0x2c3c(%ebp)
 804b0aa:	00 00 00 
 804b0ad:	c7 85 c8 d3 ff ff 00 	movl   $0x0,-0x2c38(%ebp)
 804b0b4:	00 00 00 
 804b0b7:	eb 73                	jmp    804b12c <iptables_xml_main+0x3d7>
 804b0b9:	52                   	push   %edx
 804b0ba:	52                   	push   %edx
 804b0bb:	6a 5d                	push   $0x5d
 804b0bd:	50                   	push   %eax
 804b0be:	e8 e9 df ff ff       	call   80490ac <strchr@plt>
 804b0c3:	83 c4 10             	add    $0x10,%esp
 804b0c6:	85 c0                	test   %eax,%eax
 804b0c8:	89 c3                	mov    %eax,%ebx
 804b0ca:	74 4c                	je     804b118 <iptables_xml_main+0x3c3>
 804b0cc:	50                   	push   %eax
 804b0cd:	50                   	push   %eax
 804b0ce:	68 c5 84 06 08       	push   $0x80684c5
 804b0d3:	8d 85 e5 d3 ff ff    	lea    -0x2c1b(%ebp),%eax
 804b0d9:	50                   	push   %eax
 804b0da:	e8 bd e2 ff ff       	call   804939c <strtok@plt>
 804b0df:	83 c4 10             	add    $0x10,%esp
 804b0e2:	85 c0                	test   %eax,%eax
 804b0e4:	89 85 c4 d3 ff ff    	mov    %eax,-0x2c3c(%ebp)
 804b0ea:	75 11                	jne    804b0fd <iptables_xml_main+0x3a8>
 804b0ec:	57                   	push   %edi
 804b0ed:	ff 35 d0 72 07 08    	pushl  0x80772d0
 804b0f3:	68 fb 68 06 08       	push   $0x80668fb
 804b0f8:	e9 24 01 00 00       	jmp    804b221 <iptables_xml_main+0x4cc>
 804b0fd:	56                   	push   %esi
 804b0fe:	56                   	push   %esi
 804b0ff:	68 f5 65 06 08       	push   $0x80665f5
 804b104:	6a 00                	push   $0x0
 804b106:	e8 91 e2 ff ff       	call   804939c <strtok@plt>
 804b10b:	83 c4 10             	add    $0x10,%esp
 804b10e:	85 c0                	test   %eax,%eax
 804b110:	89 85 c8 d3 ff ff    	mov    %eax,-0x2c38(%ebp)
 804b116:	75 11                	jne    804b129 <iptables_xml_main+0x3d4>
 804b118:	51                   	push   %ecx
 804b119:	ff 35 d0 72 07 08    	pushl  0x80772d0
 804b11f:	68 e6 68 06 08       	push   $0x80668e6
 804b124:	e9 f8 00 00 00       	jmp    804b221 <iptables_xml_main+0x4cc>
 804b129:	8d 43 01             	lea    0x1(%ebx),%eax
 804b12c:	89 c6                	mov    %eax,%esi
 804b12e:	89 c7                	mov    %eax,%edi
 804b130:	c7 85 d0 d3 ff ff 00 	movl   $0x0,-0x2c30(%ebp)
 804b137:	00 00 00 
 804b13a:	c7 85 cc d3 ff ff 00 	movl   $0x0,-0x2c34(%ebp)
 804b141:	00 00 00 
 804b144:	c7 85 d4 d3 ff ff 00 	movl   $0x0,-0x2c2c(%ebp)
 804b14b:	00 00 00 
 804b14e:	e9 60 01 00 00       	jmp    804b2b3 <iptables_xml_main+0x55e>
 804b153:	3c 22                	cmp    $0x22,%al
 804b155:	75 33                	jne    804b18a <iptables_xml_main+0x435>
 804b157:	83 bd d0 d3 ff ff 00 	cmpl   $0x0,-0x2c30(%ebp)
 804b15e:	74 15                	je     804b175 <iptables_xml_main+0x420>
 804b160:	80 7f ff 5c          	cmpb   $0x5c,-0x1(%edi)
 804b164:	74 0f                	je     804b175 <iptables_xml_main+0x420>
 804b166:	c6 07 20             	movb   $0x20,(%edi)
 804b169:	c7 85 d0 d3 ff ff 00 	movl   $0x0,-0x2c30(%ebp)
 804b170:	00 00 00 
 804b173:	eb 15                	jmp    804b18a <iptables_xml_main+0x435>
 804b175:	46                   	inc    %esi
 804b176:	c7 85 d0 d3 ff ff 01 	movl   $0x1,-0x2c30(%ebp)
 804b17d:	00 00 00 
 804b180:	c7 85 d4 d3 ff ff 01 	movl   $0x1,-0x2c2c(%ebp)
 804b187:	00 00 00 
 804b18a:	8a 07                	mov    (%edi),%al
 804b18c:	3c 20                	cmp    $0x20,%al
 804b18e:	74 0c                	je     804b19c <iptables_xml_main+0x447>
 804b190:	3c 09                	cmp    $0x9,%al
 804b192:	74 08                	je     804b19c <iptables_xml_main+0x447>
 804b194:	3c 0a                	cmp    $0xa,%al
 804b196:	0f 85 16 01 00 00    	jne    804b2b2 <iptables_xml_main+0x55d>
 804b19c:	83 bd d0 d3 ff ff 00 	cmpl   $0x0,-0x2c30(%ebp)
 804b1a3:	0f 85 09 01 00 00    	jne    804b2b2 <iptables_xml_main+0x55d>
 804b1a9:	89 fa                	mov    %edi,%edx
 804b1ab:	29 f2                	sub    %esi,%edx
 804b1ad:	89 95 d8 d3 ff ff    	mov    %edx,-0x2c28(%ebp)
 804b1b3:	75 06                	jne    804b1bb <iptables_xml_main+0x466>
 804b1b5:	46                   	inc    %esi
 804b1b6:	e9 f7 00 00 00       	jmp    804b2b2 <iptables_xml_main+0x55d>
 804b1bb:	52                   	push   %edx
 804b1bc:	ff b5 d8 d3 ff ff    	pushl  -0x2c28(%ebp)
 804b1c2:	8d 85 e4 fb ff ff    	lea    -0x41c(%ebp),%eax
 804b1c8:	56                   	push   %esi
 804b1c9:	50                   	push   %eax
 804b1ca:	e8 0d df ff ff       	call   80490dc <strncpy@plt>
 804b1cf:	8b 95 d8 d3 ff ff    	mov    -0x2c28(%ebp),%edx
 804b1d5:	83 c4 0c             	add    $0xc,%esp
 804b1d8:	6a 03                	push   $0x3
 804b1da:	68 10 69 06 08       	push   $0x8066910
 804b1df:	8d 85 e4 fb ff ff    	lea    -0x41c(%ebp),%eax
 804b1e5:	50                   	push   %eax
 804b1e6:	c6 84 15 e4 fb ff ff 	movb   $0x0,-0x41c(%ebp,%edx,1)
 804b1ed:	00 
 804b1ee:	e8 69 e2 ff ff       	call   804945c <strncmp@plt>
 804b1f3:	83 c4 10             	add    $0x10,%esp
 804b1f6:	85 c0                	test   %eax,%eax
 804b1f8:	74 1b                	je     804b215 <iptables_xml_main+0x4c0>
 804b1fa:	50                   	push   %eax
 804b1fb:	6a 08                	push   $0x8
 804b1fd:	68 8d 7a 06 08       	push   $0x8067a8d
 804b202:	8d 95 e4 fb ff ff    	lea    -0x41c(%ebp),%edx
 804b208:	52                   	push   %edx
 804b209:	e8 4e e2 ff ff       	call   804945c <strncmp@plt>
 804b20e:	83 c4 10             	add    $0x10,%esp
 804b211:	85 c0                	test   %eax,%eax
 804b213:	75 16                	jne    804b22b <iptables_xml_main+0x4d6>
 804b215:	50                   	push   %eax
 804b216:	ff 35 d0 72 07 08    	pushl  0x80772d0
 804b21c:	68 22 69 06 08       	push   $0x8066922
 804b221:	a1 6c 09 0c 08       	mov    0x80c096c,%eax
 804b226:	6a 02                	push   $0x2
 804b228:	ff 50 14             	call   *0x14(%eax)
 804b22b:	8b 1d 54 9b 07 08    	mov    0x8079b54,%ebx
 804b231:	8d 43 01             	lea    0x1(%ebx),%eax
 804b234:	3d fe 00 00 00       	cmp    $0xfe,%eax
 804b239:	77 31                	ja     804b26c <iptables_xml_main+0x517>
 804b23b:	83 ec 0c             	sub    $0xc,%esp
 804b23e:	8d 85 e4 fb ff ff    	lea    -0x41c(%ebp),%eax
 804b244:	50                   	push   %eax
 804b245:	e8 72 e2 ff ff       	call   80494bc <strdup@plt>
 804b24a:	8b 95 d4 d3 ff ff    	mov    -0x2c2c(%ebp),%edx
 804b250:	83 c4 10             	add    $0x10,%esp
 804b253:	89 04 9d 60 9b 07 08 	mov    %eax,0x8079b60(,%ebx,4)
 804b25a:	a1 54 9b 07 08       	mov    0x8079b54,%eax
 804b25f:	ff 05 54 9b 07 08    	incl   0x8079b54
 804b265:	89 14 85 58 a3 07 08 	mov    %edx,0x807a358(,%eax,4)
 804b26c:	8b 1d 54 9b 07 08    	mov    0x8079b54,%ebx
 804b272:	83 fb 01             	cmp    $0x1,%ebx
 804b275:	76 27                	jbe    804b29e <iptables_xml_main+0x549>
 804b277:	50                   	push   %eax
 804b278:	50                   	push   %eax
 804b279:	68 cf 6b 06 08       	push   $0x8066bcf
 804b27e:	ff 34 9d 58 9b 07 08 	pushl  0x8079b58(,%ebx,4)
 804b285:	e8 62 e2 ff ff       	call   80494ec <strcmp@plt>
 804b28a:	83 c4 10             	add    $0x10,%esp
 804b28d:	85 c0                	test   %eax,%eax
 804b28f:	75 0d                	jne    804b29e <iptables_xml_main+0x549>
 804b291:	8b 1c 9d 5c 9b 07 08 	mov    0x8079b5c(,%ebx,4),%ebx
 804b298:	89 9d cc d3 ff ff    	mov    %ebx,-0x2c34(%ebp)
 804b29e:	8b 85 d8 d3 ff ff    	mov    -0x2c28(%ebp),%eax
 804b2a4:	c7 85 d4 d3 ff ff 00 	movl   $0x0,-0x2c2c(%ebp)
 804b2ab:	00 00 00 
 804b2ae:	8d 74 06 01          	lea    0x1(%esi,%eax,1),%esi
 804b2b2:	47                   	inc    %edi
 804b2b3:	8a 07                	mov    (%edi),%al
 804b2b5:	84 c0                	test   %al,%al
 804b2b7:	0f 85 96 fe ff ff    	jne    804b153 <iptables_xml_main+0x3fe>
 804b2bd:	50                   	push   %eax
 804b2be:	50                   	push   %eax
 804b2bf:	ff b5 cc d3 ff ff    	pushl  -0x2c34(%ebp)
 804b2c5:	68 c0 a7 07 08       	push   $0x807a7c0
 804b2ca:	e8 1d e2 ff ff       	call   80494ec <strcmp@plt>
 804b2cf:	83 c4 10             	add    $0x10,%esp
 804b2d2:	85 c0                	test   %eax,%eax
 804b2d4:	74 52                	je     804b328 <iptables_xml_main+0x5d3>
 804b2d6:	be e4 a7 07 08       	mov    $0x807a7e4,%esi
 804b2db:	31 ff                	xor    %edi,%edi
 804b2dd:	eb 41                	jmp    804b320 <iptables_xml_main+0x5cb>
 804b2df:	8b 1e                	mov    (%esi),%ebx
 804b2e1:	85 db                	test   %ebx,%ebx
 804b2e3:	74 37                	je     804b31c <iptables_xml_main+0x5c7>
 804b2e5:	50                   	push   %eax
 804b2e6:	50                   	push   %eax
 804b2e7:	ff b5 cc d3 ff ff    	pushl  -0x2c34(%ebp)
 804b2ed:	53                   	push   %ebx
 804b2ee:	e8 f9 e1 ff ff       	call   80494ec <strcmp@plt>
 804b2f3:	83 c4 10             	add    $0x10,%esp
 804b2f6:	85 c0                	test   %eax,%eax
 804b2f8:	75 22                	jne    804b31c <iptables_xml_main+0x5c7>
 804b2fa:	6b cf 1c             	imul   $0x1c,%edi,%ecx
 804b2fd:	8b 56 04             	mov    0x4(%esi),%edx
 804b300:	83 ec 0c             	sub    $0xc,%esp
 804b303:	6a 00                	push   $0x0
 804b305:	89 d8                	mov    %ebx,%eax
 804b307:	81 c1 ec a7 07 08    	add    $0x807a7ec,%ecx
 804b30d:	e8 ed f1 ff ff       	call   804a4ff <openChain>
 804b312:	83 c4 10             	add    $0x10,%esp
 804b315:	c7 46 18 01 00 00 00 	movl   $0x1,0x18(%esi)
 804b31c:	47                   	inc    %edi
 804b31d:	83 c6 1c             	add    $0x1c,%esi
 804b320:	3b 3d 58 9b 07 08    	cmp    0x8079b58,%edi
 804b326:	7c b7                	jl     804b2df <iptables_xml_main+0x58a>
 804b328:	8b 15 54 9b 07 08    	mov    0x8079b54,%edx
 804b32e:	83 fa 02             	cmp    $0x2,%edx
 804b331:	0f 9f 85 df d3 ff ff 	setg   -0x2c21(%ebp)
 804b338:	83 3d 4c 9b 07 08 00 	cmpl   $0x0,0x8079b4c
 804b33f:	89 95 e0 d3 ff ff    	mov    %edx,-0x2c20(%ebp)
 804b345:	0f 84 38 01 00 00    	je     804b483 <iptables_xml_main+0x72e>
 804b34b:	80 bd df d3 ff ff 00 	cmpb   $0x0,-0x2c21(%ebp)
 804b352:	0f 84 2b 01 00 00    	je     804b483 <iptables_xml_main+0x72e>
 804b358:	a1 68 9b 07 08       	mov    0x8079b68,%eax
 804b35d:	e8 f7 ef ff ff       	call   804a359 <isTarget>
 804b362:	85 c0                	test   %eax,%eax
 804b364:	0f 85 19 01 00 00    	jne    804b483 <iptables_xml_main+0x72e>
 804b36a:	8b 3d 5c 9b 07 08    	mov    0x8079b5c,%edi
 804b370:	31 db                	xor    %ebx,%ebx
 804b372:	e9 fc 00 00 00       	jmp    804b473 <iptables_xml_main+0x71e>
 804b377:	8b 34 9d 5c 9f 07 08 	mov    0x8079f5c(,%ebx,4),%esi
 804b37e:	89 f0                	mov    %esi,%eax
 804b380:	e8 d4 ef ff ff       	call   804a359 <isTarget>
 804b385:	85 c0                	test   %eax,%eax
 804b387:	0f 84 cf 00 00 00    	je     804b45c <iptables_xml_main+0x707>
 804b38d:	8b 04 9d 60 9b 07 08 	mov    0x8079b60(,%ebx,4),%eax
 804b394:	e8 c0 ef ff ff       	call   804a359 <isTarget>
 804b399:	85 c0                	test   %eax,%eax
 804b39b:	0f 84 bb 00 00 00    	je     804b45c <iptables_xml_main+0x707>
 804b3a1:	50                   	push   %eax
 804b3a2:	50                   	push   %eax
 804b3a3:	68 4d 6a 06 08       	push   $0x8066a4d
 804b3a8:	56                   	push   %esi
 804b3a9:	e8 3e e1 ff ff       	call   80494ec <strcmp@plt>
 804b3ae:	83 c4 10             	add    $0x10,%esp
 804b3b1:	85 c0                	test   %eax,%eax
 804b3b3:	74 14                	je     804b3c9 <iptables_xml_main+0x674>
 804b3b5:	51                   	push   %ecx
 804b3b6:	51                   	push   %ecx
 804b3b7:	68 50 6a 06 08       	push   $0x8066a50
 804b3bc:	56                   	push   %esi
 804b3bd:	e8 2a e1 ff ff       	call   80494ec <strcmp@plt>
 804b3c2:	83 c4 10             	add    $0x10,%esp
 804b3c5:	85 c0                	test   %eax,%eax
 804b3c7:	75 66                	jne    804b42f <iptables_xml_main+0x6da>
 804b3c9:	8d 43 01             	lea    0x1(%ebx),%eax
 804b3cc:	39 f8                	cmp    %edi,%eax
 804b3ce:	73 5f                	jae    804b42f <iptables_xml_main+0x6da>
 804b3d0:	8b 1c 85 5c 9f 07 08 	mov    0x8079f5c(,%eax,4),%ebx
 804b3d7:	85 db                	test   %ebx,%ebx
 804b3d9:	74 54                	je     804b42f <iptables_xml_main+0x6da>
 804b3db:	52                   	push   %edx
 804b3dc:	52                   	push   %edx
 804b3dd:	68 08 8a 06 08       	push   $0x8068a08
 804b3e2:	53                   	push   %ebx
 804b3e3:	e8 04 e1 ff ff       	call   80494ec <strcmp@plt>
 804b3e8:	83 c4 10             	add    $0x10,%esp
 804b3eb:	85 c0                	test   %eax,%eax
 804b3ed:	0f 84 90 00 00 00    	je     804b483 <iptables_xml_main+0x72e>
 804b3f3:	50                   	push   %eax
 804b3f4:	50                   	push   %eax
 804b3f5:	68 12 8a 06 08       	push   $0x8068a12
 804b3fa:	53                   	push   %ebx
 804b3fb:	e8 ec e0 ff ff       	call   80494ec <strcmp@plt>
 804b400:	83 c4 10             	add    $0x10,%esp
 804b403:	85 c0                	test   %eax,%eax
 804b405:	74 7c                	je     804b483 <iptables_xml_main+0x72e>
 804b407:	50                   	push   %eax
 804b408:	50                   	push   %eax
 804b409:	68 ec d8 06 08       	push   $0x806d8ec
 804b40e:	53                   	push   %ebx
 804b40f:	e8 d8 e0 ff ff       	call   80494ec <strcmp@plt>
 804b414:	83 c4 10             	add    $0x10,%esp
 804b417:	85 c0                	test   %eax,%eax
 804b419:	74 68                	je     804b483 <iptables_xml_main+0x72e>
 804b41b:	50                   	push   %eax
 804b41c:	50                   	push   %eax
 804b41d:	68 d2 6b 06 08       	push   $0x8066bd2
 804b422:	53                   	push   %ebx
 804b423:	e8 c4 e0 ff ff       	call   80494ec <strcmp@plt>
 804b428:	83 c4 10             	add    $0x10,%esp
 804b42b:	85 c0                	test   %eax,%eax
 804b42d:	74 54                	je     804b483 <iptables_xml_main+0x72e>
 804b42f:	50                   	push   %eax
 804b430:	50                   	push   %eax
 804b431:	68 57 6a 06 08       	push   $0x8066a57
 804b436:	56                   	push   %esi
 804b437:	e8 b0 e0 ff ff       	call   80494ec <strcmp@plt>
 804b43c:	83 c4 10             	add    $0x10,%esp
 804b43f:	85 c0                	test   %eax,%eax
 804b441:	74 40                	je     804b483 <iptables_xml_main+0x72e>
 804b443:	50                   	push   %eax
 804b444:	50                   	push   %eax
 804b445:	68 5a 6a 06 08       	push   $0x8066a5a
 804b44a:	56                   	push   %esi
 804b44b:	e8 9c e0 ff ff       	call   80494ec <strcmp@plt>
 804b450:	83 c4 10             	add    $0x10,%esp
 804b453:	85 c0                	test   %eax,%eax
 804b455:	74 2c                	je     804b483 <iptables_xml_main+0x72e>
 804b457:	e9 ac 02 00 00       	jmp    804b708 <iptables_xml_main+0x9b3>
 804b45c:	50                   	push   %eax
 804b45d:	50                   	push   %eax
 804b45e:	ff 34 9d 60 9b 07 08 	pushl  0x8079b60(,%ebx,4)
 804b465:	56                   	push   %esi
 804b466:	e8 81 e0 ff ff       	call   80494ec <strcmp@plt>
 804b46b:	83 c4 10             	add    $0x10,%esp
 804b46e:	85 c0                	test   %eax,%eax
 804b470:	75 11                	jne    804b483 <iptables_xml_main+0x72e>
 804b472:	43                   	inc    %ebx
 804b473:	3b 9d e0 d3 ff ff    	cmp    -0x2c20(%ebp),%ebx
 804b479:	73 08                	jae    804b483 <iptables_xml_main+0x72e>
 804b47b:	39 fb                	cmp    %edi,%ebx
 804b47d:	0f 82 f4 fe ff ff    	jb     804b377 <iptables_xml_main+0x622>
 804b483:	80 3d 54 a7 07 08 00 	cmpb   $0x0,0x807a754
 804b48a:	74 17                	je     804b4a3 <iptables_xml_main+0x74e>
 804b48c:	83 ec 0c             	sub    $0xc,%esp
 804b48f:	68 54 a7 07 08       	push   $0x807a754
 804b494:	e8 83 df ff ff       	call   804941c <puts@plt>
 804b499:	83 c4 10             	add    $0x10,%esp
 804b49c:	c6 05 54 a7 07 08 00 	movb   $0x0,0x807a754
 804b4a3:	80 3d 78 a7 07 08 00 	cmpb   $0x0,0x807a778
 804b4aa:	74 17                	je     804b4c3 <iptables_xml_main+0x76e>
 804b4ac:	83 ec 0c             	sub    $0xc,%esp
 804b4af:	68 78 a7 07 08       	push   $0x807a778
 804b4b4:	e8 63 df ff ff       	call   804941c <puts@plt>
 804b4b9:	83 c4 10             	add    $0x10,%esp
 804b4bc:	c6 05 78 a7 07 08 00 	movb   $0x0,0x807a778
 804b4c3:	83 ec 0c             	sub    $0xc,%esp
 804b4c6:	68 d9 6b 06 08       	push   $0x8066bd9
 804b4cb:	e8 0c de ff ff       	call   80492dc <printf@plt>
 804b4d0:	83 c4 10             	add    $0x10,%esp
 804b4d3:	83 bd c4 d3 ff ff 00 	cmpl   $0x0,-0x2c3c(%ebp)
 804b4da:	74 10                	je     804b4ec <iptables_xml_main+0x797>
 804b4dc:	8b 95 c4 d3 ff ff    	mov    -0x2c3c(%ebp),%edx
 804b4e2:	b8 9a 6a 06 08       	mov    $0x8066a9a,%eax
 804b4e7:	e8 e4 ef ff ff       	call   804a4d0 <xmlAttrS>
 804b4ec:	83 bd c8 d3 ff ff 00 	cmpl   $0x0,-0x2c38(%ebp)
 804b4f3:	74 10                	je     804b505 <iptables_xml_main+0x7b0>
 804b4f5:	8b 95 c8 d3 ff ff    	mov    -0x2c38(%ebp),%edx
 804b4fb:	b8 b2 6a 06 08       	mov    $0x8066ab2,%eax
 804b500:	e8 cb ef ff ff       	call   804a4d0 <xmlAttrS>
 804b505:	83 ec 0c             	sub    $0xc,%esp
 804b508:	68 b5 6b 06 08       	push   $0x8066bb5
 804b50d:	e8 0a df ff ff       	call   804941c <puts@plt>
 804b512:	83 c4 0c             	add    $0xc,%esp
 804b515:	6a 20                	push   $0x20
 804b517:	68 e6 6b 06 08       	push   $0x8066be6
 804b51c:	68 78 a7 07 08       	push   $0x807a778
 804b521:	e8 b6 db ff ff       	call   80490dc <strncpy@plt>
 804b526:	83 c4 10             	add    $0x10,%esp
 804b529:	80 bd df d3 ff ff 00 	cmpb   $0x0,-0x2c21(%ebp)
 804b530:	c6 05 98 a7 07 08 00 	movb   $0x0,0x807a798
 804b537:	74 49                	je     804b582 <iptables_xml_main+0x82d>
 804b539:	a1 68 9b 07 08       	mov    0x8079b68,%eax
 804b53e:	e8 16 ee ff ff       	call   804a359 <isTarget>
 804b543:	85 c0                	test   %eax,%eax
 804b545:	75 3b                	jne    804b582 <iptables_xml_main+0x82d>
 804b547:	83 ec 0c             	sub    $0xc,%esp
 804b54a:	68 f5 6b 06 08       	push   $0x8066bf5
 804b54f:	e8 c8 de ff ff       	call   804941c <puts@plt>
 804b554:	83 c4 0c             	add    $0xc,%esp
 804b557:	83 c9 ff             	or     $0xffffffff,%ecx
 804b55a:	68 58 a3 07 08       	push   $0x807a358
 804b55f:	31 d2                	xor    %edx,%edx
 804b561:	68 60 9b 07 08       	push   $0x8079b60
 804b566:	31 c0                	xor    %eax,%eax
 804b568:	ff b5 e0 d3 ff ff    	pushl  -0x2c20(%ebp)
 804b56e:	e8 d4 f0 ff ff       	call   804a647 <do_rule_part>
 804b573:	c7 04 24 09 6c 06 08 	movl   $0x8066c09,(%esp)
 804b57a:	e8 9d de ff ff       	call   804941c <puts@plt>
 804b57f:	83 c4 10             	add    $0x10,%esp
 804b582:	80 3d 54 a7 07 08 00 	cmpb   $0x0,0x807a754
 804b589:	75 2b                	jne    804b5b6 <iptables_xml_main+0x861>
 804b58b:	83 ec 0c             	sub    $0xc,%esp
 804b58e:	68 1e 6c 06 08       	push   $0x8066c1e
 804b593:	e8 84 de ff ff       	call   804941c <puts@plt>
 804b598:	83 c4 0c             	add    $0xc,%esp
 804b59b:	6a 20                	push   $0x20
 804b59d:	68 2f 6c 06 08       	push   $0x8066c2f
 804b5a2:	68 54 a7 07 08       	push   $0x807a754
 804b5a7:	e8 30 db ff ff       	call   80490dc <strncpy@plt>
 804b5ac:	83 c4 10             	add    $0x10,%esp
 804b5af:	c6 05 74 a7 07 08 00 	movb   $0x0,0x807a774
 804b5b6:	51                   	push   %ecx
 804b5b7:	31 d2                	xor    %edx,%edx
 804b5b9:	68 58 a3 07 08       	push   $0x807a358
 804b5be:	b9 01 00 00 00       	mov    $0x1,%ecx
 804b5c3:	68 60 9b 07 08       	push   $0x8079b60
 804b5c8:	31 c0                	xor    %eax,%eax
 804b5ca:	ff b5 e0 d3 ff ff    	pushl  -0x2c20(%ebp)
 804b5d0:	31 db                	xor    %ebx,%ebx
 804b5d2:	e8 70 f0 ff ff       	call   804a647 <do_rule_part>
 804b5d7:	eb 10                	jmp    804b5e9 <iptables_xml_main+0x894>
 804b5d9:	83 ec 0c             	sub    $0xc,%esp
 804b5dc:	ff 34 9d 5c 9f 07 08 	pushl  0x8079f5c(,%ebx,4)
 804b5e3:	43                   	inc    %ebx
 804b5e4:	e8 e3 db ff ff       	call   80491cc <free@plt>
 804b5e9:	83 c4 10             	add    $0x10,%esp
 804b5ec:	3b 1d 5c 9b 07 08    	cmp    0x8079b5c,%ebx
 804b5f2:	72 e5                	jb     804b5d9 <iptables_xml_main+0x884>
 804b5f4:	8b 0d 54 9b 07 08    	mov    0x8079b54,%ecx
 804b5fa:	31 d2                	xor    %edx,%edx
 804b5fc:	c7 05 54 9b 07 08 00 	movl   $0x0,0x8079b54
 804b603:	00 00 00 
 804b606:	89 0d 5c 9b 07 08    	mov    %ecx,0x8079b5c
 804b60c:	eb 1a                	jmp    804b628 <iptables_xml_main+0x8d3>
 804b60e:	8b 04 95 60 9b 07 08 	mov    0x8079b60(,%edx,4),%eax
 804b615:	c7 04 95 60 9b 07 08 	movl   $0x0,0x8079b60(,%edx,4)
 804b61c:	00 00 00 00 
 804b620:	89 04 95 5c 9f 07 08 	mov    %eax,0x8079f5c(,%edx,4)
 804b627:	42                   	inc    %edx
 804b628:	39 ca                	cmp    %ecx,%edx
 804b62a:	72 e2                	jb     804b60e <iptables_xml_main+0x8b9>
 804b62c:	52                   	push   %edx
 804b62d:	ff b5 c0 d3 ff ff    	pushl  -0x2c40(%ebp)
 804b633:	8d 9d e4 d3 ff ff    	lea    -0x2c1c(%ebp),%ebx
 804b639:	68 00 28 00 00       	push   $0x2800
 804b63e:	53                   	push   %ebx
 804b63f:	e8 b8 da ff ff       	call   80490fc <fgets@plt>
 804b644:	83 c4 10             	add    $0x10,%esp
 804b647:	85 c0                	test   %eax,%eax
 804b649:	0f 85 21 f8 ff ff    	jne    804ae70 <iptables_xml_main+0x11b>
 804b64f:	80 3d 9c a7 07 08 00 	cmpb   $0x0,0x807a79c
 804b656:	74 17                	je     804b66f <iptables_xml_main+0x91a>
 804b658:	a1 d0 72 07 08       	mov    0x80772d0,%eax
 804b65d:	40                   	inc    %eax
 804b65e:	50                   	push   %eax
 804b65f:	ff 35 7c 72 07 08    	pushl  0x807727c
 804b665:	68 74 69 06 08       	push   $0x8066974
 804b66a:	e9 b9 00 00 00       	jmp    804b728 <iptables_xml_main+0x9d3>
 804b66f:	83 bd c0 d3 ff ff 00 	cmpl   $0x0,-0x2c40(%ebp)
 804b676:	74 11                	je     804b689 <iptables_xml_main+0x934>
 804b678:	83 ec 0c             	sub    $0xc,%esp
 804b67b:	ff b5 c0 d3 ff ff    	pushl  -0x2c40(%ebp)
 804b681:	e8 d6 db ff ff       	call   804925c <fclose@plt>
 804b686:	83 c4 10             	add    $0x10,%esp
 804b689:	83 ec 0c             	sub    $0xc,%esp
 804b68c:	31 db                	xor    %ebx,%ebx
 804b68e:	68 42 6c 06 08       	push   $0x8066c42
 804b693:	e8 84 dd ff ff       	call   804941c <puts@plt>
 804b698:	eb 1b                	jmp    804b6b5 <iptables_xml_main+0x960>
 804b69a:	83 ec 0c             	sub    $0xc,%esp
 804b69d:	ff 34 9d 60 9b 07 08 	pushl  0x8079b60(,%ebx,4)
 804b6a4:	e8 23 db ff ff       	call   80491cc <free@plt>
 804b6a9:	c7 04 9d 60 9b 07 08 	movl   $0x0,0x8079b60(,%ebx,4)
 804b6b0:	00 00 00 00 
 804b6b4:	43                   	inc    %ebx
 804b6b5:	83 c4 10             	add    $0x10,%esp
 804b6b8:	3b 1d 54 9b 07 08    	cmp    0x8079b54,%ebx
 804b6be:	72 da                	jb     804b69a <iptables_xml_main+0x945>
 804b6c0:	c7 05 54 9b 07 08 00 	movl   $0x0,0x8079b54
 804b6c7:	00 00 00 
 804b6ca:	31 db                	xor    %ebx,%ebx
 804b6cc:	eb 1e                	jmp    804b6ec <iptables_xml_main+0x997>
 804b6ce:	83 ec 0c             	sub    $0xc,%esp
 804b6d1:	ff 34 9d 5c 9f 07 08 	pushl  0x8079f5c(,%ebx,4)
 804b6d8:	e8 ef da ff ff       	call   80491cc <free@plt>
 804b6dd:	83 c4 10             	add    $0x10,%esp
 804b6e0:	c7 04 9d 5c 9f 07 08 	movl   $0x0,0x8079f5c(,%ebx,4)
 804b6e7:	00 00 00 00 
 804b6eb:	43                   	inc    %ebx
 804b6ec:	3b 1d 5c 9b 07 08    	cmp    0x8079b5c,%ebx
 804b6f2:	72 da                	jb     804b6ce <iptables_xml_main+0x979>
 804b6f4:	c7 05 5c 9b 07 08 00 	movl   $0x0,0x8079b5c
 804b6fb:	00 00 00 
 804b6fe:	31 c0                	xor    %eax,%eax
 804b700:	8d 65 f4             	lea    -0xc(%ebp),%esp
 804b703:	5b                   	pop    %ebx
 804b704:	5e                   	pop    %esi
 804b705:	5f                   	pop    %edi
 804b706:	5d                   	pop    %ebp
 804b707:	c3                   	ret    
 804b708:	b8 54 6c 06 08       	mov    $0x8066c54,%eax
 804b70d:	e8 18 ed ff ff       	call   804a42a <xmlComment>
 804b712:	e9 6b fe ff ff       	jmp    804b582 <iptables_xml_main+0x82d>
 804b717:	ff 35 d0 72 07 08    	pushl  0x80772d0
 804b71d:	ff 35 7c 72 07 08    	pushl  0x807727c
 804b723:	68 60 69 06 08       	push   $0x8066960
 804b728:	ff 35 14 97 07 08    	pushl  0x8079714
 804b72e:	e8 29 dc ff ff       	call   804935c <fprintf@plt>
 804b733:	58                   	pop    %eax
 804b734:	e9 fd f6 ff ff       	jmp    804ae36 <iptables_xml_main+0xe1>
 804b739:	90                   	nop    
 804b73a:	90                   	nop    
 804b73b:	90                   	nop    

0804b73c <iptables_main>:
 804b73c:	55                   	push   %ebp
 804b73d:	89 e5                	mov    %esp,%ebp
 804b73f:	56                   	push   %esi
 804b740:	53                   	push   %ebx
 804b741:	83 ec 18             	sub    $0x18,%esp
 804b744:	6a 02                	push   $0x2
 804b746:	68 d4 72 07 08       	push   $0x80772d4
 804b74b:	c7 45 f4 7a 6c 06 08 	movl   $0x8066c7a,-0xc(%ebp)
 804b752:	c7 45 f0 00 00 00 00 	movl   $0x0,-0x10(%ebp)
 804b759:	c7 05 d8 72 07 08 e0 	movl   $0x80664e0,0x80772d8
 804b760:	64 06 08 
 804b763:	e8 7b 49 00 00       	call   80500e3 <xtables_init_all>
 804b768:	83 c4 10             	add    $0x10,%esp
 804b76b:	85 c0                	test   %eax,%eax
 804b76d:	79 28                	jns    804b797 <iptables_main+0x5b>
 804b76f:	ff 35 dc 72 07 08    	pushl  0x80772dc
 804b775:	ff 35 d8 72 07 08    	pushl  0x80772d8
 804b77b:	68 1c 66 06 08       	push   $0x806661c
 804b780:	ff 35 14 97 07 08    	pushl  0x8079714
 804b786:	e8 d1 db ff ff       	call   804935c <fprintf@plt>
 804b78b:	c7 04 24 01 00 00 00 	movl   $0x1,(%esp)
 804b792:	e9 8b 00 00 00       	jmp    804b822 <iptables_main+0xe6>
 804b797:	e8 2c 6f 00 00       	call   80526c8 <init_extensions>
 804b79c:	8d 45 f0             	lea    -0x10(%ebp),%eax
 804b79f:	50                   	push   %eax
 804b7a0:	8d 45 f4             	lea    -0xc(%ebp),%eax
 804b7a3:	50                   	push   %eax
 804b7a4:	ff 75 0c             	pushl  0xc(%ebp)
 804b7a7:	ff 75 08             	pushl  0x8(%ebp)
 804b7aa:	e8 8f 0f 00 00       	call   804c73e <do_command>
 804b7af:	83 c4 10             	add    $0x10,%esp
 804b7b2:	85 c0                	test   %eax,%eax
 804b7b4:	74 1d                	je     804b7d3 <iptables_main+0x97>
 804b7b6:	83 ec 0c             	sub    $0xc,%esp
 804b7b9:	ff 75 f0             	pushl  -0x10(%ebp)
 804b7bc:	e8 ae 4c 00 00       	call   805046f <iptc_commit>
 804b7c1:	89 c3                	mov    %eax,%ebx
 804b7c3:	58                   	pop    %eax
 804b7c4:	ff 75 f0             	pushl  -0x10(%ebp)
 804b7c7:	e8 6c 69 00 00       	call   8052138 <iptc_free>
 804b7cc:	83 c4 10             	add    $0x10,%esp
 804b7cf:	85 db                	test   %ebx,%ebx
 804b7d1:	75 54                	jne    804b827 <iptables_main+0xeb>
 804b7d3:	e8 f4 d7 ff ff       	call   8048fcc <__errno_location@plt>
 804b7d8:	89 c6                	mov    %eax,%esi
 804b7da:	8b 00                	mov    (%eax),%eax
 804b7dc:	83 f8 16             	cmp    $0x16,%eax
 804b7df:	75 15                	jne    804b7f6 <iptables_main+0xba>
 804b7e1:	83 ec 0c             	sub    $0xc,%esp
 804b7e4:	6a 16                	push   $0x16
 804b7e6:	e8 92 4a 00 00       	call   805027d <iptc_strerror>
 804b7eb:	83 c4 0c             	add    $0xc,%esp
 804b7ee:	50                   	push   %eax
 804b7ef:	68 81 6c 06 08       	push   $0x8066c81
 804b7f4:	eb 12                	jmp    804b808 <iptables_main+0xcc>
 804b7f6:	83 ec 0c             	sub    $0xc,%esp
 804b7f9:	50                   	push   %eax
 804b7fa:	e8 7e 4a 00 00       	call   805027d <iptc_strerror>
 804b7ff:	83 c4 0c             	add    $0xc,%esp
 804b802:	50                   	push   %eax
 804b803:	68 b2 6c 06 08       	push   $0x8066cb2
 804b808:	ff 35 14 97 07 08    	pushl  0x8079714
 804b80e:	31 db                	xor    %ebx,%ebx
 804b810:	e8 47 db ff ff       	call   804935c <fprintf@plt>
 804b815:	83 c4 10             	add    $0x10,%esp
 804b818:	83 3e 0b             	cmpl   $0xb,(%esi)
 804b81b:	75 0a                	jne    804b827 <iptables_main+0xeb>
 804b81d:	83 ec 0c             	sub    $0xc,%esp
 804b820:	6a 04                	push   $0x4
 804b822:	e8 e5 dc ff ff       	call   804950c <exit@plt>
 804b827:	83 ec 0c             	sub    $0xc,%esp
 804b82a:	31 c0                	xor    %eax,%eax
 804b82c:	85 db                	test   %ebx,%ebx
 804b82e:	0f 94 c0             	sete   %al
 804b831:	50                   	push   %eax
 804b832:	eb ee                	jmp    804b822 <iptables_main+0xe6>

0804b834 <add_command>:
 804b834:	55                   	push   %ebp
 804b835:	89 e5                	mov    %esp,%ebp
 804b837:	53                   	push   %ebx
 804b838:	89 c3                	mov    %eax,%ebx
 804b83a:	83 ec 04             	sub    $0x4,%esp
 804b83d:	83 7d 08 00          	cmpl   $0x0,0x8(%ebp)
 804b841:	74 11                	je     804b854 <add_command+0x20>
 804b843:	50                   	push   %eax
 804b844:	50                   	push   %eax
 804b845:	a1 6c 09 0c 08       	mov    0x80c096c,%eax
 804b84a:	68 c1 6c 06 08       	push   $0x8066cc1
 804b84f:	6a 02                	push   $0x2
 804b851:	ff 50 14             	call   *0x14(%eax)
 804b854:	8b 00                	mov    (%eax),%eax
 804b856:	f7 d1                	not    %ecx
 804b858:	21 c1                	and    %eax,%ecx
 804b85a:	74 39                	je     804b895 <add_command+0x61>
 804b85c:	a1 6c 09 0c 08       	mov    0x80c096c,%eax
 804b861:	8b 58 14             	mov    0x14(%eax),%ebx
 804b864:	b8 9c 7f 06 08       	mov    $0x8067f9c,%eax
 804b869:	eb 03                	jmp    804b86e <add_command+0x3a>
 804b86b:	d1 f9                	sar    %ecx
 804b86d:	40                   	inc    %eax
 804b86e:	83 f9 01             	cmp    $0x1,%ecx
 804b871:	7f f8                	jg     804b86b <add_command+0x37>
 804b873:	8a 00                	mov    (%eax),%al
 804b875:	b9 9c 7f 06 08       	mov    $0x8067f9c,%ecx
 804b87a:	eb 03                	jmp    804b87f <add_command+0x4b>
 804b87c:	d1 fa                	sar    %edx
 804b87e:	41                   	inc    %ecx
 804b87f:	83 fa 01             	cmp    $0x1,%edx
 804b882:	7f f8                	jg     804b87c <add_command+0x48>
 804b884:	0f be c0             	movsbl %al,%eax
 804b887:	50                   	push   %eax
 804b888:	0f be 01             	movsbl (%ecx),%eax
 804b88b:	50                   	push   %eax
 804b88c:	68 d3 6c 06 08       	push   $0x8066cd3
 804b891:	6a 02                	push   $0x2
 804b893:	ff d3                	call   *%ebx
 804b895:	09 d0                	or     %edx,%eax
 804b897:	89 03                	mov    %eax,(%ebx)
 804b899:	8b 5d fc             	mov    -0x4(%ebp),%ebx
 804b89c:	c9                   	leave  
 804b89d:	c3                   	ret    

0804b89e <set_option>:
 804b89e:	55                   	push   %ebp
 804b89f:	89 e5                	mov    %esp,%ebp
 804b8a1:	56                   	push   %esi
 804b8a2:	89 ce                	mov    %ecx,%esi
 804b8a4:	53                   	push   %ebx
 804b8a5:	89 c3                	mov    %eax,%ebx
 804b8a7:	8b 00                	mov    (%eax),%eax
 804b8a9:	85 c2                	test   %eax,%edx
 804b8ab:	74 23                	je     804b8d0 <set_option+0x32>
 804b8ad:	a1 6c 09 0c 08       	mov    0x80c096c,%eax
 804b8b2:	8b 48 14             	mov    0x14(%eax),%ecx
 804b8b5:	b8 84 80 06 08       	mov    $0x8068084,%eax
 804b8ba:	eb 03                	jmp    804b8bf <set_option+0x21>
 804b8bc:	d1 fa                	sar    %edx
 804b8be:	40                   	inc    %eax
 804b8bf:	83 fa 01             	cmp    $0x1,%edx
 804b8c2:	7f f8                	jg     804b8bc <set_option+0x1e>
 804b8c4:	53                   	push   %ebx
 804b8c5:	0f be 00             	movsbl (%eax),%eax
 804b8c8:	50                   	push   %eax
 804b8c9:	68 ec 6c 06 08       	push   $0x8066cec
 804b8ce:	eb 48                	jmp    804b918 <set_option+0x7a>
 804b8d0:	09 d0                	or     %edx,%eax
 804b8d2:	89 03                	mov    %eax,(%ebx)
 804b8d4:	83 7d 08 00          	cmpl   $0x0,0x8(%ebp)
 804b8d8:	74 44                	je     804b91e <set_option+0x80>
 804b8da:	31 c9                	xor    %ecx,%ecx
 804b8dc:	bb 01 00 00 00       	mov    $0x1,%ebx
 804b8e1:	eb 01                	jmp    804b8e4 <set_option+0x46>
 804b8e3:	41                   	inc    %ecx
 804b8e4:	89 d8                	mov    %ebx,%eax
 804b8e6:	d3 e0                	shl    %cl,%eax
 804b8e8:	39 d0                	cmp    %edx,%eax
 804b8ea:	75 f7                	jne    804b8e3 <set_option+0x45>
 804b8ec:	8b 04 8d ac 7f 06 08 	mov    0x8067fac(,%ecx,4),%eax
 804b8f3:	85 c0                	test   %eax,%eax
 804b8f5:	75 25                	jne    804b91c <set_option+0x7e>
 804b8f7:	a1 6c 09 0c 08       	mov    0x80c096c,%eax
 804b8fc:	8b 48 14             	mov    0x14(%eax),%ecx
 804b8ff:	b8 84 80 06 08       	mov    $0x8068084,%eax
 804b904:	eb 03                	jmp    804b909 <set_option+0x6b>
 804b906:	d1 fa                	sar    %edx
 804b908:	40                   	inc    %eax
 804b909:	83 fa 01             	cmp    $0x1,%edx
 804b90c:	7f f8                	jg     804b906 <set_option+0x68>
 804b90e:	52                   	push   %edx
 804b90f:	0f be 00             	movsbl (%eax),%eax
 804b912:	50                   	push   %eax
 804b913:	68 0b 6d 06 08       	push   $0x8066d0b
 804b918:	6a 02                	push   $0x2
 804b91a:	ff d1                	call   *%ecx
 804b91c:	08 06                	or     %al,(%esi)
 804b91e:	8d 65 f8             	lea    -0x8(%ebp),%esp
 804b921:	5b                   	pop    %ebx
 804b922:	5e                   	pop    %esi
 804b923:	5d                   	pop    %ebp
 804b924:	c3                   	ret    

0804b925 <print_num>:
 804b925:	55                   	push   %ebp
 804b926:	f6 c1 04             	test   $0x4,%cl
 804b929:	89 e5                	mov    %esp,%ebp
 804b92b:	56                   	push   %esi
 804b92c:	53                   	push   %ebx
 804b92d:	89 cb                	mov    %ecx,%ebx
 804b92f:	0f 84 f7 00 00 00    	je     804ba2c <print_num+0x107>
 804b935:	83 fa 00             	cmp    $0x0,%edx
 804b938:	77 0b                	ja     804b945 <print_num+0x20>
 804b93a:	3d 9f 86 01 00       	cmp    $0x1869f,%eax
 804b93f:	0f 86 d6 00 00 00    	jbe    804ba1b <print_num+0xf6>
 804b945:	05 f4 01 00 00       	add    $0x1f4,%eax
 804b94a:	6a 00                	push   $0x0
 804b94c:	83 d2 00             	adc    $0x0,%edx
 804b94f:	68 e8 03 00 00       	push   $0x3e8
 804b954:	52                   	push   %edx
 804b955:	50                   	push   %eax
 804b956:	e8 85 a9 01 00       	call   80662e0 <__udivdi3>
 804b95b:	83 c4 10             	add    $0x10,%esp
 804b95e:	83 fa 00             	cmp    $0x0,%edx
 804b961:	77 0b                	ja     804b96e <print_num+0x49>
 804b963:	3d 0f 27 00 00       	cmp    $0x270f,%eax
 804b968:	0f 86 9c 00 00 00    	jbe    804ba0a <print_num+0xe5>
 804b96e:	05 f4 01 00 00       	add    $0x1f4,%eax
 804b973:	6a 00                	push   $0x0
 804b975:	83 d2 00             	adc    $0x0,%edx
 804b978:	68 e8 03 00 00       	push   $0x3e8
 804b97d:	52                   	push   %edx
 804b97e:	50                   	push   %eax
 804b97f:	e8 5c a9 01 00       	call   80662e0 <__udivdi3>
 804b984:	83 c4 10             	add    $0x10,%esp
 804b987:	83 fa 00             	cmp    $0x0,%edx
 804b98a:	77 07                	ja     804b993 <print_num+0x6e>
 804b98c:	3d 0f 27 00 00       	cmp    $0x270f,%eax
 804b991:	76 66                	jbe    804b9f9 <print_num+0xd4>
 804b993:	05 f4 01 00 00       	add    $0x1f4,%eax
 804b998:	6a 00                	push   $0x0
 804b99a:	83 d2 00             	adc    $0x0,%edx
 804b99d:	68 e8 03 00 00       	push   $0x3e8
 804b9a2:	52                   	push   %edx
 804b9a3:	50                   	push   %eax
 804b9a4:	e8 37 a9 01 00       	call   80662e0 <__udivdi3>
 804b9a9:	83 c4 10             	add    $0x10,%esp
 804b9ac:	83 fa 00             	cmp    $0x0,%edx
 804b9af:	77 07                	ja     804b9b8 <print_num+0x93>
 804b9b1:	3d 0f 27 00 00       	cmp    $0x270f,%eax
 804b9b6:	76 30                	jbe    804b9e8 <print_num+0xc3>
 804b9b8:	80 e3 10             	and    $0x10,%bl
 804b9bb:	be 2c 6d 06 08       	mov    $0x8066d2c,%esi
 804b9c0:	75 05                	jne    804b9c7 <print_num+0xa2>
 804b9c2:	be 24 6d 06 08       	mov    $0x8066d24,%esi
 804b9c7:	05 f4 01 00 00       	add    $0x1f4,%eax
 804b9cc:	83 d2 00             	adc    $0x0,%edx
 804b9cf:	83 ec 10             	sub    $0x10,%esp
 804b9d2:	6a 00                	push   $0x0
 804b9d4:	68 e8 03 00 00       	push   $0x3e8
 804b9d9:	52                   	push   %edx
 804b9da:	50                   	push   %eax
 804b9db:	e8 00 a9 01 00       	call   80662e0 <__udivdi3>
 804b9e0:	83 c4 1c             	add    $0x1c,%esp
 804b9e3:	52                   	push   %edx
 804b9e4:	50                   	push   %eax
 804b9e5:	56                   	push   %esi
 804b9e6:	eb 57                	jmp    804ba3f <print_num+0x11a>
 804b9e8:	80 e3 10             	and    $0x10,%bl
 804b9eb:	b9 3b 6d 06 08       	mov    $0x8066d3b,%ecx
 804b9f0:	75 49                	jne    804ba3b <print_num+0x116>
 804b9f2:	b9 33 6d 06 08       	mov    $0x8066d33,%ecx
 804b9f7:	eb 42                	jmp    804ba3b <print_num+0x116>
 804b9f9:	80 e3 10             	and    $0x10,%bl
 804b9fc:	b9 4a 6d 06 08       	mov    $0x8066d4a,%ecx
 804ba01:	75 38                	jne    804ba3b <print_num+0x116>
 804ba03:	b9 42 6d 06 08       	mov    $0x8066d42,%ecx
 804ba08:	eb 31                	jmp    804ba3b <print_num+0x116>
 804ba0a:	80 e3 10             	and    $0x10,%bl
 804ba0d:	b9 59 6d 06 08       	mov    $0x8066d59,%ecx
 804ba12:	75 27                	jne    804ba3b <print_num+0x116>
 804ba14:	b9 51 6d 06 08       	mov    $0x8066d51,%ecx
 804ba19:	eb 20                	jmp    804ba3b <print_num+0x116>
 804ba1b:	80 e3 10             	and    $0x10,%bl
 804ba1e:	b9 dc ea 06 08       	mov    $0x806eadc,%ecx
 804ba23:	75 16                	jne    804ba3b <print_num+0x116>
 804ba25:	b9 60 6d 06 08       	mov    $0x8066d60,%ecx
 804ba2a:	eb 0f                	jmp    804ba3b <print_num+0x116>
 804ba2c:	80 e3 10             	and    $0x10,%bl
 804ba2f:	b9 dc ea 06 08       	mov    $0x806eadc,%ecx
 804ba34:	75 05                	jne    804ba3b <print_num+0x116>
 804ba36:	b9 67 6d 06 08       	mov    $0x8066d67,%ecx
 804ba3b:	56                   	push   %esi
 804ba3c:	52                   	push   %edx
 804ba3d:	50                   	push   %eax
 804ba3e:	51                   	push   %ecx
 804ba3f:	e8 98 d8 ff ff       	call   80492dc <printf@plt>
 804ba44:	83 c4 10             	add    $0x10,%esp
 804ba47:	8d 65 f8             	lea    -0x8(%ebp),%esp
 804ba4a:	5b                   	pop    %ebx
 804ba4b:	5e                   	pop    %esi
 804ba4c:	5d                   	pop    %ebp
 804ba4d:	c3                   	ret    

0804ba4e <exit_tryhelp>:
 804ba4e:	55                   	push   %ebp
 804ba4f:	89 e5                	mov    %esp,%ebp
 804ba51:	53                   	push   %ebx
 804ba52:	89 c3                	mov    %eax,%ebx
 804ba54:	83 ec 04             	sub    $0x4,%esp
 804ba57:	a1 d0 72 07 08       	mov    0x80772d0,%eax
 804ba5c:	83 f8 ff             	cmp    $0xffffffff,%eax
 804ba5f:	74 15                	je     804ba76 <exit_tryhelp+0x28>
 804ba61:	52                   	push   %edx
 804ba62:	50                   	push   %eax
 804ba63:	68 6e 6d 06 08       	push   $0x8066d6e
 804ba68:	ff 35 14 97 07 08    	pushl  0x8079714
 804ba6e:	e8 e9 d8 ff ff       	call   804935c <fprintf@plt>
 804ba73:	83 c4 10             	add    $0x10,%esp
 804ba76:	a1 d8 72 07 08       	mov    0x80772d8,%eax
 804ba7b:	50                   	push   %eax
 804ba7c:	50                   	push   %eax
 804ba7d:	68 8a 6d 06 08       	push   $0x8066d8a
 804ba82:	ff 35 14 97 07 08    	pushl  0x8079714
 804ba88:	e8 cf d8 ff ff       	call   804935c <fprintf@plt>
 804ba8d:	c7 04 24 01 00 00 00 	movl   $0x1,(%esp)
 804ba94:	e8 80 38 00 00       	call   804f319 <xtables_free_opts>
 804ba99:	89 1c 24             	mov    %ebx,(%esp)
 804ba9c:	e8 6b da ff ff       	call   804950c <exit@plt>

0804baa1 <parse_rulenumber>:
 804baa1:	55                   	push   %ebp
 804baa2:	89 e5                	mov    %esp,%ebp
 804baa4:	53                   	push   %ebx
 804baa5:	89 c3                	mov    %eax,%ebx
 804baa7:	83 ec 20             	sub    $0x20,%esp
 804baaa:	68 ff ff ff 7f       	push   $0x7fffffff
 804baaf:	6a 01                	push   $0x1
 804bab1:	8d 45 f8             	lea    -0x8(%ebp),%eax
 804bab4:	50                   	push   %eax
 804bab5:	6a 00                	push   $0x0
 804bab7:	53                   	push   %ebx
 804bab8:	e8 e9 34 00 00       	call   804efa6 <xtables_strtoui>
 804babd:	83 c4 20             	add    $0x20,%esp
 804bac0:	84 c0                	test   %al,%al
 804bac2:	75 11                	jne    804bad5 <parse_rulenumber+0x34>
 804bac4:	a1 6c 09 0c 08       	mov    0x80c096c,%eax
 804bac9:	51                   	push   %ecx
 804baca:	53                   	push   %ebx
 804bacb:	68 bc 6d 06 08       	push   $0x8066dbc
 804bad0:	6a 02                	push   $0x2
 804bad2:	ff 50 14             	call   *0x14(%eax)
 804bad5:	8b 45 f8             	mov    -0x8(%ebp),%eax
 804bad8:	8b 5d fc             	mov    -0x4(%ebp),%ebx
 804badb:	c9                   	leave  
 804badc:	c3                   	ret    

0804badd <print_iface>:
 804badd:	55                   	push   %ebp
 804bade:	89 e5                	mov    %esp,%ebp
 804bae0:	57                   	push   %edi
 804bae1:	89 d7                	mov    %edx,%edi
 804bae3:	56                   	push   %esi
 804bae4:	89 ce                	mov    %ecx,%esi
 804bae6:	53                   	push   %ebx
 804bae7:	83 ec 0c             	sub    $0xc,%esp
 804baea:	8b 4d 08             	mov    0x8(%ebp),%ecx
 804baed:	80 3e 00             	cmpb   $0x0,(%esi)
 804baf0:	74 70                	je     804bb62 <print_iface+0x85>
 804baf2:	85 c9                	test   %ecx,%ecx
 804baf4:	ba d5 6d 06 08       	mov    $0x8066dd5,%edx
 804baf9:	75 05                	jne    804bb00 <print_iface+0x23>
 804bafb:	ba c9 67 06 08       	mov    $0x80667c9,%edx
 804bb00:	0f be c0             	movsbl %al,%eax
 804bb03:	53                   	push   %ebx
 804bb04:	31 db                	xor    %ebx,%ebx
 804bb06:	50                   	push   %eax
 804bb07:	52                   	push   %edx
 804bb08:	68 d8 6d 06 08       	push   $0x8066dd8
 804bb0d:	e8 ca d7 ff ff       	call   80492dc <printf@plt>
 804bb12:	83 c4 10             	add    $0x10,%esp
 804bb15:	80 3c 1e 00          	cmpb   $0x0,(%esi,%ebx,1)
 804bb19:	74 18                	je     804bb33 <print_iface+0x56>
 804bb1b:	8a 04 1f             	mov    (%edi,%ebx,1),%al
 804bb1e:	84 c0                	test   %al,%al
 804bb20:	74 27                	je     804bb49 <print_iface+0x6c>
 804bb22:	83 ec 0c             	sub    $0xc,%esp
 804bb25:	0f be c0             	movsbl %al,%eax
 804bb28:	50                   	push   %eax
 804bb29:	e8 be d5 ff ff       	call   80490ec <putchar@plt>
 804bb2e:	83 c4 10             	add    $0x10,%esp
 804bb31:	eb 16                	jmp    804bb49 <print_iface+0x6c>
 804bb33:	80 7c 1f ff 00       	cmpb   $0x0,-0x1(%edi,%ebx,1)
 804bb38:	74 15                	je     804bb4f <print_iface+0x72>
 804bb3a:	83 ec 0c             	sub    $0xc,%esp
 804bb3d:	6a 2b                	push   $0x2b
 804bb3f:	e8 a8 d5 ff ff       	call   80490ec <putchar@plt>
 804bb44:	83 c4 10             	add    $0x10,%esp
 804bb47:	eb 06                	jmp    804bb4f <print_iface+0x72>
 804bb49:	43                   	inc    %ebx
 804bb4a:	83 fb 10             	cmp    $0x10,%ebx
 804bb4d:	75 c6                	jne    804bb15 <print_iface+0x38>
 804bb4f:	c7 45 08 20 00 00 00 	movl   $0x20,0x8(%ebp)
 804bb56:	8d 65 f4             	lea    -0xc(%ebp),%esp
 804bb59:	5b                   	pop    %ebx
 804bb5a:	5e                   	pop    %esi
 804bb5b:	5f                   	pop    %edi
 804bb5c:	5d                   	pop    %ebp
 804bb5d:	e9 8a d5 ff ff       	jmp    80490ec <putchar@plt>
 804bb62:	8d 65 f4             	lea    -0xc(%ebp),%esp
 804bb65:	5b                   	pop    %ebx
 804bb66:	5e                   	pop    %esi
 804bb67:	5f                   	pop    %edi
 804bb68:	5d                   	pop    %ebp
 804bb69:	c3                   	ret    

0804bb6a <parse_target>:
 804bb6a:	55                   	push   %ebp
 804bb6b:	89 e5                	mov    %esp,%ebp
 804bb6d:	57                   	push   %edi
 804bb6e:	56                   	push   %esi
 804bb6f:	89 c6                	mov    %eax,%esi
 804bb71:	53                   	push   %ebx
 804bb72:	83 ec 0c             	sub    $0xc,%esp
 804bb75:	80 38 00             	cmpb   $0x0,(%eax)
 804bb78:	75 09                	jne    804bb83 <parse_target+0x19>
 804bb7a:	50                   	push   %eax
 804bb7b:	50                   	push   %eax
 804bb7c:	68 df 6d 06 08       	push   $0x8066ddf
 804bb81:	eb 1a                	jmp    804bb9d <parse_target+0x33>
 804bb83:	31 c0                	xor    %eax,%eax
 804bb85:	83 c9 ff             	or     $0xffffffff,%ecx
 804bb88:	89 f7                	mov    %esi,%edi
 804bb8a:	89 f3                	mov    %esi,%ebx
 804bb8c:	f2 ae                	repnz scas %es:(%edi),%al
 804bb8e:	f7 d1                	not    %ecx
 804bb90:	83 f9 20             	cmp    $0x20,%ecx
 804bb93:	76 2e                	jbe    804bbc3 <parse_target+0x59>
 804bb95:	6a 1f                	push   $0x1f
 804bb97:	56                   	push   %esi
 804bb98:	68 ff 6d 06 08       	push   $0x8066dff
 804bb9d:	a1 6c 09 0c 08       	mov    0x80c096c,%eax
 804bba2:	6a 02                	push   $0x2
 804bba4:	ff 50 14             	call   *0x14(%eax)
 804bba7:	e8 90 d6 ff ff       	call   804923c <__ctype_b_loc@plt>
 804bbac:	0f be 55 f3          	movsbl -0xd(%ebp),%edx
 804bbb0:	8b 00                	mov    (%eax),%eax
 804bbb2:	f6 44 50 01 20       	testb  $0x20,0x1(%eax,%edx,2)
 804bbb7:	74 09                	je     804bbc2 <parse_target+0x58>
 804bbb9:	57                   	push   %edi
 804bbba:	56                   	push   %esi
 804bbbb:	68 27 6e 06 08       	push   $0x8066e27
 804bbc0:	eb db                	jmp    804bb9d <parse_target+0x33>
 804bbc2:	43                   	inc    %ebx
 804bbc3:	8a 03                	mov    (%ebx),%al
 804bbc5:	84 c0                	test   %al,%al
 804bbc7:	88 45 f3             	mov    %al,-0xd(%ebp)
 804bbca:	75 db                	jne    804bba7 <parse_target+0x3d>
 804bbcc:	8d 65 f4             	lea    -0xc(%ebp),%esp
 804bbcf:	89 f0                	mov    %esi,%eax
 804bbd1:	5b                   	pop    %ebx
 804bbd2:	5e                   	pop    %esi
 804bbd3:	5f                   	pop    %edi
 804bbd4:	5d                   	pop    %ebp
 804bbd5:	c3                   	ret    

0804bbd6 <find_proto>:
 804bbd6:	55                   	push   %ebp
 804bbd7:	89 e5                	mov    %esp,%ebp
 804bbd9:	57                   	push   %edi
 804bbda:	89 d7                	mov    %edx,%edi
 804bbdc:	56                   	push   %esi
 804bbdd:	89 ce                	mov    %ecx,%esi
 804bbdf:	53                   	push   %ebx
 804bbe0:	89 c3                	mov    %eax,%ebx
 804bbe2:	83 ec 28             	sub    $0x28,%esp
 804bbe5:	68 ff 00 00 00       	push   $0xff
 804bbea:	6a 00                	push   $0x0
 804bbec:	8d 45 f0             	lea    -0x10(%ebp),%eax
 804bbef:	50                   	push   %eax
 804bbf0:	6a 00                	push   $0x0
 804bbf2:	53                   	push   %ebx
 804bbf3:	e8 ae 33 00 00       	call   804efa6 <xtables_strtoui>
 804bbf8:	83 c4 20             	add    $0x20,%esp
 804bbfb:	84 c0                	test   %al,%al
 804bbfd:	74 49                	je     804bc48 <find_proto+0x72>
 804bbff:	8a 5d f0             	mov    -0x10(%ebp),%bl
 804bc02:	84 db                	test   %bl,%bl
 804bc04:	74 17                	je     804bc1d <find_proto+0x47>
 804bc06:	85 f6                	test   %esi,%esi
 804bc08:	75 13                	jne    804bc1d <find_proto+0x47>
 804bc0a:	83 ec 0c             	sub    $0xc,%esp
 804bc0d:	0f b6 c3             	movzbl %bl,%eax
 804bc10:	50                   	push   %eax
 804bc11:	e8 e6 d5 ff ff       	call   80491fc <getprotobynumber@plt>
 804bc16:	83 c4 10             	add    $0x10,%esp
 804bc19:	85 c0                	test   %eax,%eax
 804bc1b:	75 04                	jne    804bc21 <find_proto+0x4b>
 804bc1d:	31 d2                	xor    %edx,%edx
 804bc1f:	eb 12                	jmp    804bc33 <find_proto+0x5d>
 804bc21:	8b 00                	mov    (%eax),%eax
 804bc23:	85 c0                	test   %eax,%eax
 804bc25:	75 19                	jne    804bc40 <find_proto+0x6a>
 804bc27:	eb 2f                	jmp    804bc58 <find_proto+0x82>
 804bc29:	38 1c d5 f0 86 06 08 	cmp    %bl,0x80686f0(,%edx,8)
 804bc30:	74 0e                	je     804bc40 <find_proto+0x6a>
 804bc32:	42                   	inc    %edx
 804bc33:	8b 04 d5 ec 86 06 08 	mov    0x80686ec(,%edx,8),%eax
 804bc3a:	85 c0                	test   %eax,%eax
 804bc3c:	75 eb                	jne    804bc29 <find_proto+0x53>
 804bc3e:	eb 18                	jmp    804bc58 <find_proto+0x82>
 804bc40:	52                   	push   %edx
 804bc41:	ff 75 08             	pushl  0x8(%ebp)
 804bc44:	57                   	push   %edi
 804bc45:	50                   	push   %eax
 804bc46:	eb 06                	jmp    804bc4e <find_proto+0x78>
 804bc48:	50                   	push   %eax
 804bc49:	ff 75 08             	pushl  0x8(%ebp)
 804bc4c:	57                   	push   %edi
 804bc4d:	53                   	push   %ebx
 804bc4e:	e8 26 3f 00 00       	call   804fb79 <xtables_find_match>
 804bc53:	83 c4 10             	add    $0x10,%esp
 804bc56:	eb 02                	jmp    804bc5a <find_proto+0x84>
 804bc58:	31 c0                	xor    %eax,%eax
 804bc5a:	8d 65 f4             	lea    -0xc(%ebp),%esp
 804bc5d:	5b                   	pop    %ebx
 804bc5e:	5e                   	pop    %esi
 804bc5f:	5f                   	pop    %edi
 804bc60:	5d                   	pop    %ebp
 804bc61:	c3                   	ret    

0804bc62 <print_firewall>:
 804bc62:	55                   	push   %ebp
 804bc63:	89 e5                	mov    %esp,%ebp
 804bc65:	57                   	push   %edi
 804bc66:	89 cf                	mov    %ecx,%edi
 804bc68:	56                   	push   %esi
 804bc69:	89 c6                	mov    %eax,%esi
 804bc6b:	53                   	push   %ebx
 804bc6c:	89 d3                	mov    %edx,%ebx
 804bc6e:	81 ec 64 20 00 00    	sub    $0x2064,%esp
 804bc74:	ff 75 0c             	pushl  0xc(%ebp)
 804bc77:	52                   	push   %edx
 804bc78:	e8 15 54 00 00       	call   8051092 <iptc_is_chain>
 804bc7d:	83 c4 10             	add    $0x10,%esp
 804bc80:	85 c0                	test   %eax,%eax
 804bc82:	75 07                	jne    804bc8b <print_firewall+0x29>
 804bc84:	50                   	push   %eax
 804bc85:	50                   	push   %eax
 804bc86:	6a 02                	push   $0x2
 804bc88:	53                   	push   %ebx
 804bc89:	eb 09                	jmp    804bc94 <print_firewall+0x32>
 804bc8b:	50                   	push   %eax
 804bc8c:	50                   	push   %eax
 804bc8d:	6a 03                	push   $0x3
 804bc8f:	68 c9 67 06 08       	push   $0x80667c9
 804bc94:	e8 ed 2b 00 00       	call   804e886 <xtables_find_target>
 804bc99:	83 c4 10             	add    $0x10,%esp
 804bc9c:	f7 45 08 00 01 00 00 	testl  $0x100,0x8(%ebp)
 804bca3:	89 85 a4 df ff ff    	mov    %eax,-0x205c(%ebp)
 804bca9:	0f b7 46 58          	movzwl 0x58(%esi),%eax
 804bcad:	8d 04 06             	lea    (%esi,%eax,1),%eax
 804bcb0:	89 85 c0 df ff ff    	mov    %eax,-0x2040(%ebp)
 804bcb6:	8a 46 52             	mov    0x52(%esi),%al
 804bcb9:	88 85 a8 df ff ff    	mov    %al,-0x2058(%ebp)
 804bcbf:	74 1c                	je     804bcdd <print_firewall+0x7b>
 804bcc1:	f6 45 08 10          	testb  $0x10,0x8(%ebp)
 804bcc5:	b8 fa 0b 07 08       	mov    $0x8070bfa,%eax
 804bcca:	75 05                	jne    804bcd1 <print_firewall+0x6f>
 804bccc:	b8 40 6e 06 08       	mov    $0x8066e40,%eax
 804bcd1:	51                   	push   %ecx
 804bcd2:	51                   	push   %ecx
 804bcd3:	57                   	push   %edi
 804bcd4:	50                   	push   %eax
 804bcd5:	e8 02 d6 ff ff       	call   80492dc <printf@plt>
 804bcda:	83 c4 10             	add    $0x10,%esp
 804bcdd:	f6 45 08 02          	testb  $0x2,0x8(%ebp)
 804bce1:	75 1c                	jne    804bcff <print_firewall+0x9d>
 804bce3:	8b 46 60             	mov    0x60(%esi),%eax
 804bce6:	8b 56 64             	mov    0x64(%esi),%edx
 804bce9:	8b 4d 08             	mov    0x8(%ebp),%ecx
 804bcec:	e8 34 fc ff ff       	call   804b925 <print_num>
 804bcf1:	8b 46 68             	mov    0x68(%esi),%eax
 804bcf4:	8b 56 6c             	mov    0x6c(%esi),%edx
 804bcf7:	8b 4d 08             	mov    0x8(%ebp),%ecx
 804bcfa:	e8 26 fc ff ff       	call   804b925 <print_num>
 804bcff:	f6 45 08 20          	testb  $0x20,0x8(%ebp)
 804bd03:	75 1c                	jne    804bd21 <print_firewall+0xbf>
 804bd05:	f6 45 08 10          	testb  $0x10,0x8(%ebp)
 804bd09:	b8 e4 eb 06 08       	mov    $0x806ebe4,%eax
 804bd0e:	75 05                	jne    804bd15 <print_firewall+0xb3>
 804bd10:	b8 46 6e 06 08       	mov    $0x8066e46,%eax
 804bd15:	52                   	push   %edx
 804bd16:	52                   	push   %edx
 804bd17:	53                   	push   %ebx
 804bd18:	50                   	push   %eax
 804bd19:	e8 be d5 ff ff       	call   80492dc <printf@plt>
 804bd1e:	83 c4 10             	add    $0x10,%esp
 804bd21:	0f b6 46 53          	movzbl 0x53(%esi),%eax
 804bd25:	57                   	push   %edi
 804bd26:	57                   	push   %edi
 804bd27:	ff 35 20 97 07 08    	pushl  0x8079720
 804bd2d:	83 e0 40             	and    $0x40,%eax
 804bd30:	83 f8 01             	cmp    $0x1,%eax
 804bd33:	19 c0                	sbb    %eax,%eax
 804bd35:	83 c0 21             	add    $0x21,%eax
 804bd38:	50                   	push   %eax
 804bd39:	e8 4e d6 ff ff       	call   804938c <fputc@plt>
 804bd3e:	8b 55 08             	mov    0x8(%ebp),%edx
 804bd41:	83 c4 10             	add    $0x10,%esp
 804bd44:	8a 5e 50             	mov    0x50(%esi),%bl
 804bd47:	83 e2 01             	and    $0x1,%edx
 804bd4a:	84 db                	test   %bl,%bl
 804bd4c:	89 95 a0 df ff ff    	mov    %edx,-0x2060(%ebp)
 804bd52:	74 17                	je     804bd6b <print_firewall+0x109>
 804bd54:	85 d2                	test   %edx,%edx
 804bd56:	75 13                	jne    804bd6b <print_firewall+0x109>
 804bd58:	83 ec 0c             	sub    $0xc,%esp
 804bd5b:	0f b6 c3             	movzbl %bl,%eax
 804bd5e:	50                   	push   %eax
 804bd5f:	e8 98 d4 ff ff       	call   80491fc <getprotobynumber@plt>
 804bd64:	83 c4 10             	add    $0x10,%esp
 804bd67:	85 c0                	test   %eax,%eax
 804bd69:	75 04                	jne    804bd6f <print_firewall+0x10d>
 804bd6b:	31 d2                	xor    %edx,%edx
 804bd6d:	eb 12                	jmp    804bd81 <print_firewall+0x11f>
 804bd6f:	8b 00                	mov    (%eax),%eax
 804bd71:	85 c0                	test   %eax,%eax
 804bd73:	75 19                	jne    804bd8e <print_firewall+0x12c>
 804bd75:	eb 2b                	jmp    804bda2 <print_firewall+0x140>
 804bd77:	38 1c d5 f0 86 06 08 	cmp    %bl,0x80686f0(,%edx,8)
 804bd7e:	74 0e                	je     804bd8e <print_firewall+0x12c>
 804bd80:	42                   	inc    %edx
 804bd81:	8b 04 d5 ec 86 06 08 	mov    0x80686ec(,%edx,8),%eax
 804bd88:	85 c0                	test   %eax,%eax
 804bd8a:	75 eb                	jne    804bd77 <print_firewall+0x115>
 804bd8c:	eb 14                	jmp    804bda2 <print_firewall+0x140>
 804bd8e:	f6 45 08 10          	testb  $0x10,0x8(%ebp)
 804bd92:	ba e4 eb 06 08       	mov    $0x806ebe4,%edx
 804bd97:	75 05                	jne    804bd9e <print_firewall+0x13c>
 804bd99:	ba 4c 6e 06 08       	mov    $0x8066e4c,%edx
 804bd9e:	53                   	push   %ebx
 804bd9f:	53                   	push   %ebx
 804bda0:	eb 18                	jmp    804bdba <print_firewall+0x158>
 804bda2:	f6 45 08 10          	testb  $0x10,0x8(%ebp)
 804bda6:	ba 57 6e 06 08       	mov    $0x8066e57,%edx
 804bdab:	8b 46 50             	mov    0x50(%esi),%eax
 804bdae:	75 05                	jne    804bdb5 <print_firewall+0x153>
 804bdb0:	ba 51 6e 06 08       	mov    $0x8066e51,%edx
 804bdb5:	51                   	push   %ecx
 804bdb6:	0f b7 c0             	movzwl %ax,%eax
 804bdb9:	51                   	push   %ecx
 804bdba:	50                   	push   %eax
 804bdbb:	52                   	push   %edx
 804bdbc:	e8 1b d5 ff ff       	call   80492dc <printf@plt>
 804bdc1:	83 c4 10             	add    $0x10,%esp
 804bdc4:	f6 45 08 08          	testb  $0x8,0x8(%ebp)
 804bdc8:	74 6f                	je     804be39 <print_firewall+0x1d7>
 804bdca:	f6 45 08 10          	testb  $0x10,0x8(%ebp)
 804bdce:	74 15                	je     804bde5 <print_firewall+0x183>
 804bdd0:	57                   	push   %edi
 804bdd1:	57                   	push   %edi
 804bdd2:	ff 35 20 97 07 08    	pushl  0x8079720
 804bdd8:	68 5c 6e 06 08       	push   $0x8066e5c
 804bddd:	e8 ca d1 ff ff       	call   8048fac <fputs@plt>
 804bde2:	83 c4 10             	add    $0x10,%esp
 804bde5:	0f b6 46 53          	movzbl 0x53(%esi),%eax
 804bde9:	53                   	push   %ebx
 804bdea:	53                   	push   %ebx
 804bdeb:	ff 35 20 97 07 08    	pushl  0x8079720
 804bdf1:	83 e0 20             	and    $0x20,%eax
 804bdf4:	83 f8 01             	cmp    $0x1,%eax
 804bdf7:	19 c0                	sbb    %eax,%eax
 804bdf9:	83 e0 0c             	and    $0xc,%eax
 804bdfc:	83 c0 21             	add    $0x21,%eax
 804bdff:	50                   	push   %eax
 804be00:	e8 87 d5 ff ff       	call   804938c <fputc@plt>
 804be05:	8a 85 a8 df ff ff    	mov    -0x2058(%ebp),%al
 804be0b:	5a                   	pop    %edx
 804be0c:	59                   	pop    %ecx
 804be0d:	ff 35 20 97 07 08    	pushl  0x8079720
 804be13:	83 e0 01             	and    $0x1,%eax
 804be16:	83 f8 01             	cmp    $0x1,%eax
 804be19:	19 c0                	sbb    %eax,%eax
 804be1b:	83 e0 c7             	and    $0xffffffc7,%eax
 804be1e:	83 c0 66             	add    $0x66,%eax
 804be21:	50                   	push   %eax
 804be22:	e8 65 d5 ff ff       	call   804938c <fputc@plt>
 804be27:	5f                   	pop    %edi
 804be28:	58                   	pop    %eax
 804be29:	ff 35 20 97 07 08    	pushl  0x8079720
 804be2f:	6a 20                	push   $0x20
 804be31:	e8 56 d5 ff ff       	call   804938c <fputc@plt>
 804be36:	83 c4 10             	add    $0x10,%esp
 804be39:	f6 45 08 40          	testb  $0x40,0x8(%ebp)
 804be3d:	0f 84 d2 00 00 00    	je     804bf15 <print_firewall+0x2b3>
 804be43:	f6 46 53 01          	testb  $0x1,0x53(%esi)
 804be47:	74 0a                	je     804be53 <print_firewall+0x1f1>
 804be49:	c6 45 d6 21          	movb   $0x21,-0x2a(%ebp)
 804be4d:	c6 45 d7 00          	movb   $0x0,-0x29(%ebp)
 804be51:	eb 04                	jmp    804be57 <print_firewall+0x1f5>
 804be53:	c6 45 d6 00          	movb   $0x0,-0x2a(%ebp)
 804be57:	80 7e 10 00          	cmpb   $0x0,0x10(%esi)
 804be5b:	74 0b                	je     804be68 <print_firewall+0x206>
 804be5d:	53                   	push   %ebx
 804be5e:	8d 46 10             	lea    0x10(%esi),%eax
 804be61:	53                   	push   %ebx
 804be62:	50                   	push   %eax
 804be63:	8d 45 d6             	lea    -0x2a(%ebp),%eax
 804be66:	eb 1c                	jmp    804be84 <print_firewall+0x222>
 804be68:	83 bd a0 df ff ff 00 	cmpl   $0x0,-0x2060(%ebp)
 804be6f:	8d 45 d6             	lea    -0x2a(%ebp),%eax
 804be72:	74 09                	je     804be7d <print_firewall+0x21b>
 804be74:	51                   	push   %ecx
 804be75:	51                   	push   %ecx
 804be76:	68 61 6e 06 08       	push   $0x8066e61
 804be7b:	eb 07                	jmp    804be84 <print_firewall+0x222>
 804be7d:	52                   	push   %edx
 804be7e:	52                   	push   %edx
 804be7f:	68 63 6e 06 08       	push   $0x8066e63
 804be84:	50                   	push   %eax
 804be85:	e8 72 d5 ff ff       	call   80493fc <strcat@plt>
 804be8a:	8b 5d 08             	mov    0x8(%ebp),%ebx
 804be8d:	83 c4 10             	add    $0x10,%esp
 804be90:	ba e8 de 06 08       	mov    $0x806dee8,%edx
 804be95:	83 e3 10             	and    $0x10,%ebx
 804be98:	75 05                	jne    804be9f <print_firewall+0x23d>
 804be9a:	ba 67 6e 06 08       	mov    $0x8066e67,%edx
 804be9f:	50                   	push   %eax
 804bea0:	50                   	push   %eax
 804bea1:	8d 45 d6             	lea    -0x2a(%ebp),%eax
 804bea4:	50                   	push   %eax
 804bea5:	52                   	push   %edx
 804bea6:	e8 31 d4 ff ff       	call   80492dc <printf@plt>
 804beab:	83 c4 10             	add    $0x10,%esp
 804beae:	f6 46 53 02          	testb  $0x2,0x53(%esi)
 804beb2:	74 0a                	je     804bebe <print_firewall+0x25c>
 804beb4:	c6 45 d6 21          	movb   $0x21,-0x2a(%ebp)
 804beb8:	c6 45 d7 00          	movb   $0x0,-0x29(%ebp)
 804bebc:	eb 04                	jmp    804bec2 <print_firewall+0x260>
 804bebe:	c6 45 d6 00          	movb   $0x0,-0x2a(%ebp)
 804bec2:	80 7e 20 00          	cmpb   $0x0,0x20(%esi)
 804bec6:	74 0b                	je     804bed3 <print_firewall+0x271>
 804bec8:	57                   	push   %edi
 804bec9:	8d 46 20             	lea    0x20(%esi),%eax
 804becc:	57                   	push   %edi
 804becd:	50                   	push   %eax
 804bece:	8d 45 d6             	lea    -0x2a(%ebp),%eax
 804bed1:	eb 1c                	jmp    804beef <print_firewall+0x28d>
 804bed3:	83 bd a0 df ff ff 00 	cmpl   $0x0,-0x2060(%ebp)
 804beda:	8d 45 d6             	lea    -0x2a(%ebp),%eax
 804bedd:	74 09                	je     804bee8 <print_firewall+0x286>
 804bedf:	51                   	push   %ecx
 804bee0:	51                   	push   %ecx
 804bee1:	68 61 6e 06 08       	push   $0x8066e61
 804bee6:	eb 07                	jmp    804beef <print_firewall+0x28d>
 804bee8:	52                   	push   %edx
 804bee9:	52                   	push   %edx
 804beea:	68 63 6e 06 08       	push   $0x8066e63
 804beef:	50                   	push   %eax
 804bef0:	e8 07 d5 ff ff       	call   80493fc <strcat@plt>
 804bef5:	83 c4 10             	add    $0x10,%esp
 804bef8:	85 db                	test   %ebx,%ebx
 804befa:	ba 0f df 06 08       	mov    $0x806df0f,%edx
 804beff:	75 05                	jne    804bf06 <print_firewall+0x2a4>
 804bf01:	ba 68 6e 06 08       	mov    $0x8066e68,%edx
 804bf06:	50                   	push   %eax
 804bf07:	50                   	push   %eax
 804bf08:	8d 45 d6             	lea    -0x2a(%ebp),%eax
 804bf0b:	50                   	push   %eax
 804bf0c:	52                   	push   %edx
 804bf0d:	e8 ca d3 ff ff       	call   80492dc <printf@plt>
 804bf12:	83 c4 10             	add    $0x10,%esp
 804bf15:	0f b6 46 53          	movzbl 0x53(%esi),%eax
 804bf19:	57                   	push   %edi
 804bf1a:	57                   	push   %edi
 804bf1b:	ff 35 20 97 07 08    	pushl  0x8079720
 804bf21:	83 e0 08             	and    $0x8,%eax
 804bf24:	83 f8 01             	cmp    $0x1,%eax
 804bf27:	19 c0                	sbb    %eax,%eax
 804bf29:	83 c0 21             	add    $0x21,%eax
 804bf2c:	50                   	push   %eax
 804bf2d:	e8 5a d4 ff ff       	call   804938c <fputc@plt>
 804bf32:	83 c4 10             	add    $0x10,%esp
 804bf35:	83 7e 08 00          	cmpl   $0x0,0x8(%esi)
 804bf39:	75 23                	jne    804bf5e <print_firewall+0x2fc>
 804bf3b:	83 bd a0 df ff ff 00 	cmpl   $0x0,-0x2060(%ebp)
 804bf42:	75 23                	jne    804bf67 <print_firewall+0x305>
 804bf44:	f6 45 08 10          	testb  $0x10,0x8(%ebp)
 804bf48:	b8 e4 eb 06 08       	mov    $0x806ebe4,%eax
 804bf4d:	75 05                	jne    804bf54 <print_firewall+0x2f2>
 804bf4f:	b8 a7 7e 06 08       	mov    $0x8067ea7,%eax
 804bf54:	53                   	push   %ebx
 804bf55:	53                   	push   %ebx
 804bf56:	68 6e 6e 06 08       	push   $0x8066e6e
 804bf5b:	50                   	push   %eax
 804bf5c:	eb 63                	jmp    804bfc1 <print_firewall+0x35f>
 804bf5e:	83 bd a0 df ff ff 00 	cmpl   $0x0,-0x2060(%ebp)
 804bf65:	74 0b                	je     804bf72 <print_firewall+0x310>
 804bf67:	83 ec 0c             	sub    $0xc,%esp
 804bf6a:	56                   	push   %esi
 804bf6b:	e8 5e 2b 00 00       	call   804eace <xtables_ipaddr_to_numeric>
 804bf70:	eb 09                	jmp    804bf7b <print_firewall+0x319>
 804bf72:	83 ec 0c             	sub    $0xc,%esp
 804bf75:	56                   	push   %esi
 804bf76:	e8 40 2d 00 00       	call   804ecbb <xtables_ipaddr_to_anyname>
 804bf7b:	5a                   	pop    %edx
 804bf7c:	59                   	pop    %ecx
 804bf7d:	50                   	push   %eax
 804bf7e:	8d 85 d6 df ff ff    	lea    -0x202a(%ebp),%eax
 804bf84:	50                   	push   %eax
 804bf85:	e8 42 d3 ff ff       	call   80492cc <strcpy@plt>
 804bf8a:	8d 46 08             	lea    0x8(%esi),%eax
 804bf8d:	89 04 24             	mov    %eax,(%esp)
 804bf90:	e8 6b 2b 00 00       	call   804eb00 <xtables_ipmask_to_numeric>
 804bf95:	5b                   	pop    %ebx
 804bf96:	5f                   	pop    %edi
 804bf97:	50                   	push   %eax
 804bf98:	8d 85 d6 df ff ff    	lea    -0x202a(%ebp),%eax
 804bf9e:	50                   	push   %eax
 804bf9f:	e8 58 d4 ff ff       	call   80493fc <strcat@plt>
 804bfa4:	83 c4 10             	add    $0x10,%esp
 804bfa7:	ba e4 eb 06 08       	mov    $0x806ebe4,%edx
 804bfac:	f6 45 08 10          	testb  $0x10,0x8(%ebp)
 804bfb0:	75 05                	jne    804bfb7 <print_firewall+0x355>
 804bfb2:	ba a7 7e 06 08       	mov    $0x8067ea7,%edx
 804bfb7:	51                   	push   %ecx
 804bfb8:	51                   	push   %ecx
 804bfb9:	8d 85 d6 df ff ff    	lea    -0x202a(%ebp),%eax
 804bfbf:	50                   	push   %eax
 804bfc0:	52                   	push   %edx
 804bfc1:	e8 16 d3 ff ff       	call   80492dc <printf@plt>
 804bfc6:	58                   	pop    %eax
 804bfc7:	0f b6 46 53          	movzbl 0x53(%esi),%eax
 804bfcb:	5a                   	pop    %edx
 804bfcc:	ff 35 20 97 07 08    	pushl  0x8079720
 804bfd2:	83 e0 10             	and    $0x10,%eax
 804bfd5:	83 f8 01             	cmp    $0x1,%eax
 804bfd8:	19 c0                	sbb    %eax,%eax
 804bfda:	83 c0 21             	add    $0x21,%eax
 804bfdd:	50                   	push   %eax
 804bfde:	e8 a9 d3 ff ff       	call   804938c <fputc@plt>
 804bfe3:	83 c4 10             	add    $0x10,%esp
 804bfe6:	83 7e 0c 00          	cmpl   $0x0,0xc(%esi)
 804bfea:	75 23                	jne    804c00f <print_firewall+0x3ad>
 804bfec:	83 bd a0 df ff ff 00 	cmpl   $0x0,-0x2060(%ebp)
 804bff3:	75 23                	jne    804c018 <print_firewall+0x3b6>
 804bff5:	f6 45 08 10          	testb  $0x10,0x8(%ebp)
 804bff9:	b8 77 6e 06 08       	mov    $0x8066e77,%eax
 804bffe:	75 05                	jne    804c005 <print_firewall+0x3a3>
 804c000:	b8 a7 7e 06 08       	mov    $0x8067ea7,%eax
 804c005:	57                   	push   %edi
 804c006:	57                   	push   %edi
 804c007:	68 6e 6e 06 08       	push   $0x8066e6e
 804c00c:	50                   	push   %eax
 804c00d:	eb 69                	jmp    804c078 <print_firewall+0x416>
 804c00f:	83 bd a0 df ff ff 00 	cmpl   $0x0,-0x2060(%ebp)
 804c016:	74 0e                	je     804c026 <print_firewall+0x3c4>
 804c018:	83 ec 0c             	sub    $0xc,%esp
 804c01b:	8d 46 04             	lea    0x4(%esi),%eax
 804c01e:	50                   	push   %eax
 804c01f:	e8 aa 2a 00 00       	call   804eace <xtables_ipaddr_to_numeric>
 804c024:	eb 0c                	jmp    804c032 <print_firewall+0x3d0>
 804c026:	83 ec 0c             	sub    $0xc,%esp
 804c029:	8d 46 04             	lea    0x4(%esi),%eax
 804c02c:	50                   	push   %eax
 804c02d:	e8 89 2c 00 00       	call   804ecbb <xtables_ipaddr_to_anyname>
 804c032:	59                   	pop    %ecx
 804c033:	5b                   	pop    %ebx
 804c034:	50                   	push   %eax
 804c035:	8d 85 d6 df ff ff    	lea    -0x202a(%ebp),%eax
 804c03b:	50                   	push   %eax
 804c03c:	e8 8b d2 ff ff       	call   80492cc <strcpy@plt>
 804c041:	8d 46 0c             	lea    0xc(%esi),%eax
 804c044:	89 04 24             	mov    %eax,(%esp)
 804c047:	e8 b4 2a 00 00       	call   804eb00 <xtables_ipmask_to_numeric>
 804c04c:	5f                   	pop    %edi
 804c04d:	5a                   	pop    %edx
 804c04e:	50                   	push   %eax
 804c04f:	8d 85 d6 df ff ff    	lea    -0x202a(%ebp),%eax
 804c055:	50                   	push   %eax
 804c056:	e8 a1 d3 ff ff       	call   80493fc <strcat@plt>
 804c05b:	83 c4 10             	add    $0x10,%esp
 804c05e:	ba 77 6e 06 08       	mov    $0x8066e77,%edx
 804c063:	f6 45 08 10          	testb  $0x10,0x8(%ebp)
 804c067:	75 05                	jne    804c06e <print_firewall+0x40c>
 804c069:	ba a7 7e 06 08       	mov    $0x8067ea7,%edx
 804c06e:	53                   	push   %ebx
 804c06f:	53                   	push   %ebx
 804c070:	8d 85 d6 df ff ff    	lea    -0x202a(%ebp),%eax
 804c076:	50                   	push   %eax
 804c077:	52                   	push   %edx
 804c078:	e8 5f d2 ff ff       	call   80492dc <printf@plt>
 804c07d:	83 c4 10             	add    $0x10,%esp
 804c080:	f6 45 08 10          	testb  $0x10,0x8(%ebp)
 804c084:	74 15                	je     804c09b <print_firewall+0x439>
 804c086:	51                   	push   %ecx
 804c087:	51                   	push   %ecx
 804c088:	ff 35 20 97 07 08    	pushl  0x8079720
 804c08e:	68 a0 30 07 08       	push   $0x80730a0
 804c093:	e8 14 cf ff ff       	call   8048fac <fputs@plt>
 804c098:	83 c4 10             	add    $0x10,%esp
 804c09b:	f6 46 52 02          	testb  $0x2,0x52(%esi)
 804c09f:	74 10                	je     804c0b1 <print_firewall+0x44f>
 804c0a1:	83 ec 0c             	sub    $0xc,%esp
 804c0a4:	68 7d 6e 06 08       	push   $0x8066e7d
 804c0a9:	e8 2e d2 ff ff       	call   80492dc <printf@plt>
 804c0ae:	83 c4 10             	add    $0x10,%esp
 804c0b1:	bf 70 00 00 00       	mov    $0x70,%edi
 804c0b6:	eb 5e                	jmp    804c116 <print_firewall+0x4b4>
 804c0b8:	52                   	push   %edx
 804c0b9:	6a 00                	push   $0x0
 804c0bb:	8d 1c 3e             	lea    (%esi,%edi,1),%ebx
 804c0be:	8d 43 02             	lea    0x2(%ebx),%eax
 804c0c1:	6a 02                	push   $0x2
 804c0c3:	50                   	push   %eax
 804c0c4:	89 85 c4 df ff ff    	mov    %eax,-0x203c(%ebp)
 804c0ca:	e8 aa 3a 00 00       	call   804fb79 <xtables_find_match>
 804c0cf:	83 c4 10             	add    $0x10,%esp
 804c0d2:	85 c0                	test   %eax,%eax
 804c0d4:	74 20                	je     804c0f6 <print_firewall+0x494>
 804c0d6:	8b 50 28             	mov    0x28(%eax),%edx
 804c0d9:	85 d2                	test   %edx,%edx
 804c0db:	74 0d                	je     804c0ea <print_firewall+0x488>
 804c0dd:	51                   	push   %ecx
 804c0de:	ff b5 a0 df ff ff    	pushl  -0x2060(%ebp)
 804c0e4:	53                   	push   %ebx
 804c0e5:	56                   	push   %esi
 804c0e6:	ff d2                	call   *%edx
 804c0e8:	eb 24                	jmp    804c10e <print_firewall+0x4ac>
 804c0ea:	52                   	push   %edx
 804c0eb:	52                   	push   %edx
 804c0ec:	ff 70 08             	pushl  0x8(%eax)
 804c0ef:	68 e4 eb 06 08       	push   $0x806ebe4
 804c0f4:	eb 13                	jmp    804c109 <print_firewall+0x4a7>
 804c0f6:	80 7b 02 00          	cmpb   $0x0,0x2(%ebx)
 804c0fa:	74 15                	je     804c111 <print_firewall+0x4af>
 804c0fc:	50                   	push   %eax
 804c0fd:	50                   	push   %eax
 804c0fe:	ff b5 c4 df ff ff    	pushl  -0x203c(%ebp)
 804c104:	68 85 6e 06 08       	push   $0x8066e85
 804c109:	e8 ce d1 ff ff       	call   80492dc <printf@plt>
 804c10e:	83 c4 10             	add    $0x10,%esp
 804c111:	0f b7 03             	movzwl (%ebx),%eax
 804c114:	01 c7                	add    %eax,%edi
 804c116:	0f b7 46 58          	movzwl 0x58(%esi),%eax
 804c11a:	39 c7                	cmp    %eax,%edi
 804c11c:	72 9a                	jb     804c0b8 <print_firewall+0x456>
 804c11e:	83 bd a4 df ff ff 00 	cmpl   $0x0,-0x205c(%ebp)
 804c125:	74 1f                	je     804c146 <print_firewall+0x4e4>
 804c127:	8b 95 a4 df ff ff    	mov    -0x205c(%ebp),%edx
 804c12d:	8b 42 28             	mov    0x28(%edx),%eax
 804c130:	85 c0                	test   %eax,%eax
 804c132:	74 36                	je     804c16a <print_firewall+0x508>
 804c134:	57                   	push   %edi
 804c135:	ff b5 a0 df ff ff    	pushl  -0x2060(%ebp)
 804c13b:	ff b5 c0 df ff ff    	pushl  -0x2040(%ebp)
 804c141:	56                   	push   %esi
 804c142:	ff d0                	call   *%eax
 804c144:	eb 21                	jmp    804c167 <print_firewall+0x505>
 804c146:	8b 95 c0 df ff ff    	mov    -0x2040(%ebp),%edx
 804c14c:	8b 02                	mov    (%edx),%eax
 804c14e:	66 83 f8 20          	cmp    $0x20,%ax
 804c152:	74 16                	je     804c16a <print_firewall+0x508>
 804c154:	0f b7 c0             	movzwl %ax,%eax
 804c157:	53                   	push   %ebx
 804c158:	83 e8 20             	sub    $0x20,%eax
 804c15b:	53                   	push   %ebx
 804c15c:	50                   	push   %eax
 804c15d:	68 99 6e 06 08       	push   $0x8066e99
 804c162:	e8 75 d1 ff ff       	call   80492dc <printf@plt>
 804c167:	83 c4 10             	add    $0x10,%esp
 804c16a:	80 7d 08 00          	cmpb   $0x0,0x8(%ebp)
 804c16e:	78 12                	js     804c182 <print_firewall+0x520>
 804c170:	51                   	push   %ecx
 804c171:	51                   	push   %ecx
 804c172:	ff 35 20 97 07 08    	pushl  0x8079720
 804c178:	6a 0a                	push   $0xa
 804c17a:	e8 0d d2 ff ff       	call   804938c <fputc@plt>
 804c17f:	83 c4 10             	add    $0x10,%esp
 804c182:	8d 65 f4             	lea    -0xc(%ebp),%esp
 804c185:	5b                   	pop    %ebx
 804c186:	5e                   	pop    %esi
 804c187:	5f                   	pop    %edi
 804c188:	5d                   	pop    %ebp
 804c189:	c3                   	ret    

0804c18a <for_each_chain>:
 804c18a:	55                   	push   %ebp
 804c18b:	89 e5                	mov    %esp,%ebp
 804c18d:	57                   	push   %edi
 804c18e:	56                   	push   %esi
 804c18f:	53                   	push   %ebx
 804c190:	83 ec 18             	sub    $0x18,%esp
 804c193:	ff 75 14             	pushl  0x14(%ebp)
 804c196:	e8 31 40 00 00       	call   80501cc <iptc_first_chain>
 804c19b:	c7 45 f0 00 00 00 00 	movl   $0x0,-0x10(%ebp)
 804c1a2:	eb 0e                	jmp    804c1b2 <for_each_chain+0x28>
 804c1a4:	83 ec 0c             	sub    $0xc,%esp
 804c1a7:	ff 75 14             	pushl  0x14(%ebp)
 804c1aa:	ff 45 f0             	incl   -0x10(%ebp)
 804c1ad:	e8 52 40 00 00       	call   8050204 <iptc_next_chain>
 804c1b2:	83 c4 10             	add    $0x10,%esp
 804c1b5:	85 c0                	test   %eax,%eax
 804c1b7:	75 eb                	jne    804c1a4 <for_each_chain+0x1a>
 804c1b9:	8b 45 f0             	mov    -0x10(%ebp),%eax
 804c1bc:	83 ec 0c             	sub    $0xc,%esp
 804c1bf:	c1 e0 05             	shl    $0x5,%eax
 804c1c2:	50                   	push   %eax
 804c1c3:	e8 05 37 00 00       	call   804f8cd <xtables_malloc>
 804c1c8:	59                   	pop    %ecx
 804c1c9:	ff 75 14             	pushl  0x14(%ebp)
 804c1cc:	89 c7                	mov    %eax,%edi
 804c1ce:	89 fb                	mov    %edi,%ebx
 804c1d0:	e8 f7 3f 00 00       	call   80501cc <iptc_first_chain>
 804c1d5:	eb 15                	jmp    804c1ec <for_each_chain+0x62>
 804c1d7:	52                   	push   %edx
 804c1d8:	52                   	push   %edx
 804c1d9:	50                   	push   %eax
 804c1da:	53                   	push   %ebx
 804c1db:	83 c3 20             	add    $0x20,%ebx
 804c1de:	e8 e9 d0 ff ff       	call   80492cc <strcpy@plt>
 804c1e3:	58                   	pop    %eax
 804c1e4:	ff 75 14             	pushl  0x14(%ebp)
 804c1e7:	e8 18 40 00 00       	call   8050204 <iptc_next_chain>
 804c1ec:	83 c4 10             	add    $0x10,%esp
 804c1ef:	85 c0                	test   %eax,%eax
 804c1f1:	75 e4                	jne    804c1d7 <for_each_chain+0x4d>
 804c1f3:	be 01 00 00 00       	mov    $0x1,%esi
 804c1f8:	31 db                	xor    %ebx,%ebx
 804c1fa:	eb 38                	jmp    804c234 <for_each_chain+0xaa>
 804c1fc:	83 7d 10 00          	cmpl   $0x0,0x10(%ebp)
 804c200:	75 19                	jne    804c21b <for_each_chain+0x91>
 804c202:	50                   	push   %eax
 804c203:	50                   	push   %eax
 804c204:	89 d8                	mov    %ebx,%eax
 804c206:	ff 75 14             	pushl  0x14(%ebp)
 804c209:	c1 e0 05             	shl    $0x5,%eax
 804c20c:	8d 04 07             	lea    (%edi,%eax,1),%eax
 804c20f:	50                   	push   %eax
 804c210:	e8 fa 4d 00 00       	call   805100f <iptc_builtin>
 804c215:	83 c4 10             	add    $0x10,%esp
 804c218:	48                   	dec    %eax
 804c219:	74 18                	je     804c233 <for_each_chain+0xa9>
 804c21b:	50                   	push   %eax
 804c21c:	89 d8                	mov    %ebx,%eax
 804c21e:	ff 75 14             	pushl  0x14(%ebp)
 804c221:	ff 75 0c             	pushl  0xc(%ebp)
 804c224:	c1 e0 05             	shl    $0x5,%eax
 804c227:	8d 04 07             	lea    (%edi,%eax,1),%eax
 804c22a:	50                   	push   %eax
 804c22b:	ff 55 08             	call   *0x8(%ebp)
 804c22e:	83 c4 10             	add    $0x10,%esp
 804c231:	21 c6                	and    %eax,%esi
 804c233:	43                   	inc    %ebx
 804c234:	3b 5d f0             	cmp    -0x10(%ebp),%ebx
 804c237:	72 c3                	jb     804c1fc <for_each_chain+0x72>
 804c239:	83 ec 0c             	sub    $0xc,%esp
 804c23c:	57                   	push   %edi
 804c23d:	e8 8a cf ff ff       	call   80491cc <free@plt>
 804c242:	8d 65 f4             	lea    -0xc(%ebp),%esp
 804c245:	89 f0                	mov    %esi,%eax
 804c247:	5b                   	pop    %ebx
 804c248:	5e                   	pop    %esi
 804c249:	5f                   	pop    %edi
 804c24a:	5d                   	pop    %ebp
 804c24b:	c3                   	ret    

0804c24c <zero_entries>:
 804c24c:	55                   	push   %ebp
 804c24d:	89 e5                	mov    %esp,%ebp
 804c24f:	56                   	push   %esi
 804c250:	53                   	push   %ebx
 804c251:	8b 5d 08             	mov    0x8(%ebp),%ebx
 804c254:	8b 45 0c             	mov    0xc(%ebp),%eax
 804c257:	8b 75 10             	mov    0x10(%ebp),%esi
 804c25a:	85 db                	test   %ebx,%ebx
 804c25c:	75 18                	jne    804c276 <zero_entries+0x2a>
 804c25e:	56                   	push   %esi
 804c25f:	6a 01                	push   $0x1
 804c261:	50                   	push   %eax
 804c262:	68 4c c2 04 08       	push   $0x804c24c
 804c267:	e8 1e ff ff ff       	call   804c18a <for_each_chain>
 804c26c:	83 c4 10             	add    $0x10,%esp
 804c26f:	8d 65 f8             	lea    -0x8(%ebp),%esp
 804c272:	5b                   	pop    %ebx
 804c273:	5e                   	pop    %esi
 804c274:	5d                   	pop    %ebp
 804c275:	c3                   	ret    
 804c276:	85 c0                	test   %eax,%eax
 804c278:	74 15                	je     804c28f <zero_entries+0x43>
 804c27a:	50                   	push   %eax
 804c27b:	53                   	push   %ebx
 804c27c:	68 bc 6e 06 08       	push   $0x8066ebc
 804c281:	ff 35 20 97 07 08    	pushl  0x8079720
 804c287:	e8 d0 d0 ff ff       	call   804935c <fprintf@plt>
 804c28c:	83 c4 10             	add    $0x10,%esp
 804c28f:	89 75 0c             	mov    %esi,0xc(%ebp)
 804c292:	89 5d 08             	mov    %ebx,0x8(%ebp)
 804c295:	8d 65 f8             	lea    -0x8(%ebp),%esp
 804c298:	5b                   	pop    %ebx
 804c299:	5e                   	pop    %esi
 804c29a:	5d                   	pop    %ebp
 804c29b:	e9 e7 4b 00 00       	jmp    8050e87 <iptc_zero_entries>

0804c2a0 <get_kernel_version>:
 804c2a0:	55                   	push   %ebp
 804c2a1:	89 e5                	mov    %esp,%ebp
 804c2a3:	83 ec 24             	sub    $0x24,%esp
 804c2a6:	68 e4 07 0c 08       	push   $0x80c07e4
 804c2ab:	c7 45 fc 00 00 00 00 	movl   $0x0,-0x4(%ebp)
 804c2b2:	c7 45 f8 00 00 00 00 	movl   $0x0,-0x8(%ebp)
 804c2b9:	c7 45 f4 00 00 00 00 	movl   $0x0,-0xc(%ebp)
 804c2c0:	e8 a7 ce ff ff       	call   804916c <uname@plt>
 804c2c5:	83 c4 10             	add    $0x10,%esp
 804c2c8:	40                   	inc    %eax
 804c2c9:	75 2a                	jne    804c2f5 <get_kernel_version+0x55>
 804c2cb:	50                   	push   %eax
 804c2cc:	50                   	push   %eax
 804c2cd:	ff 35 14 97 07 08    	pushl  0x8079714
 804c2d3:	68 d0 6e 06 08       	push   $0x8066ed0
 804c2d8:	e8 cf cc ff ff       	call   8048fac <fputs@plt>
 804c2dd:	c7 04 24 01 00 00 00 	movl   $0x1,(%esp)
 804c2e4:	e8 30 30 00 00       	call   804f319 <xtables_free_opts>
 804c2e9:	c7 04 24 01 00 00 00 	movl   $0x1,(%esp)
 804c2f0:	e8 17 d2 ff ff       	call   804950c <exit@plt>
 804c2f5:	83 ec 0c             	sub    $0xc,%esp
 804c2f8:	8d 45 f4             	lea    -0xc(%ebp),%eax
 804c2fb:	50                   	push   %eax
 804c2fc:	8d 45 f8             	lea    -0x8(%ebp),%eax
 804c2ff:	50                   	push   %eax
 804c300:	8d 45 fc             	lea    -0x4(%ebp),%eax
 804c303:	50                   	push   %eax
 804c304:	68 f4 6e 06 08       	push   $0x8066ef4
 804c309:	68 66 08 0c 08       	push   $0x80c0866
 804c30e:	e8 39 d1 ff ff       	call   804944c <sscanf@plt>
 804c313:	8b 45 fc             	mov    -0x4(%ebp),%eax
 804c316:	83 c4 20             	add    $0x20,%esp
 804c319:	c1 e0 08             	shl    $0x8,%eax
 804c31c:	03 45 f8             	add    -0x8(%ebp),%eax
 804c31f:	c1 e0 08             	shl    $0x8,%eax
 804c322:	03 45 f4             	add    -0xc(%ebp),%eax
 804c325:	a3 94 0e 0c 08       	mov    %eax,0x80c0e94
 804c32a:	c9                   	leave  
 804c32b:	c3                   	ret    

0804c32c <print_ip>:
 804c32c:	55                   	push   %ebp
 804c32d:	89 e5                	mov    %esp,%ebp
 804c32f:	57                   	push   %edi
 804c330:	89 c7                	mov    %eax,%edi
 804c332:	56                   	push   %esi
 804c333:	89 ce                	mov    %ecx,%esi
 804c335:	53                   	push   %ebx
 804c336:	89 cb                	mov    %ecx,%ebx
 804c338:	83 ec 0c             	sub    $0xc,%esp
 804c33b:	8b 45 08             	mov    0x8(%ebp),%eax
 804c33e:	66 c1 ce 08          	ror    $0x8,%si
 804c342:	c1 ce 10             	ror    $0x10,%esi
 804c345:	66 c1 ce 08          	ror    $0x8,%si
 804c349:	09 d1                	or     %edx,%ecx
 804c34b:	75 08                	jne    804c355 <print_ip+0x29>
 804c34d:	85 c0                	test   %eax,%eax
 804c34f:	0f 84 b2 00 00 00    	je     804c407 <print_ip+0xdb>
 804c355:	66 c1 ca 08          	ror    $0x8,%dx
 804c359:	c1 ca 10             	ror    $0x10,%edx
 804c35c:	66 c1 ca 08          	ror    $0x8,%dx
 804c360:	85 c0                	test   %eax,%eax
 804c362:	b9 d5 6d 06 08       	mov    $0x8066dd5,%ecx
 804c367:	75 05                	jne    804c36e <print_ip+0x42>
 804c369:	b9 c9 67 06 08       	mov    $0x80667c9,%ecx
 804c36e:	50                   	push   %eax
 804c36f:	0f b6 c2             	movzbl %dl,%eax
 804c372:	50                   	push   %eax
 804c373:	0f b6 c6             	movzbl %dh,%eax
 804c376:	c1 ea 10             	shr    $0x10,%edx
 804c379:	50                   	push   %eax
 804c37a:	0f b6 c2             	movzbl %dl,%eax
 804c37d:	50                   	push   %eax
 804c37e:	c1 ea 08             	shr    $0x8,%edx
 804c381:	52                   	push   %edx
 804c382:	57                   	push   %edi
 804c383:	51                   	push   %ecx
 804c384:	68 fd 6e 06 08       	push   $0x8066efd
 804c389:	e8 4e cf ff ff       	call   80492dc <printf@plt>
 804c38e:	83 c4 20             	add    $0x20,%esp
 804c391:	83 fb ff             	cmp    $0xffffffff,%ebx
 804c394:	74 0c                	je     804c3a2 <print_ip+0x76>
 804c396:	ba fe ff ff ff       	mov    $0xfffffffe,%edx
 804c39b:	b8 20 00 00 00       	mov    $0x20,%eax
 804c3a0:	eb 15                	jmp    804c3b7 <print_ip+0x8b>
 804c3a2:	c7 45 08 0e 6f 06 08 	movl   $0x8066f0e,0x8(%ebp)
 804c3a9:	8d 65 f4             	lea    -0xc(%ebp),%esp
 804c3ac:	5b                   	pop    %ebx
 804c3ad:	5e                   	pop    %esi
 804c3ae:	5f                   	pop    %edi
 804c3af:	5d                   	pop    %ebp
 804c3b0:	e9 27 cf ff ff       	jmp    80492dc <printf@plt>
 804c3b5:	01 d2                	add    %edx,%edx
 804c3b7:	48                   	dec    %eax
 804c3b8:	83 f8 ff             	cmp    $0xffffffff,%eax
 804c3bb:	74 1a                	je     804c3d7 <print_ip+0xab>
 804c3bd:	39 d6                	cmp    %edx,%esi
 804c3bf:	75 f4                	jne    804c3b5 <print_ip+0x89>
 804c3c1:	85 c0                	test   %eax,%eax
 804c3c3:	78 12                	js     804c3d7 <print_ip+0xab>
 804c3c5:	52                   	push   %edx
 804c3c6:	52                   	push   %edx
 804c3c7:	50                   	push   %eax
 804c3c8:	68 13 6f 06 08       	push   $0x8066f13
 804c3cd:	e8 0a cf ff ff       	call   80492dc <printf@plt>
 804c3d2:	83 c4 10             	add    $0x10,%esp
 804c3d5:	eb 30                	jmp    804c407 <print_ip+0xdb>
 804c3d7:	83 ec 0c             	sub    $0xc,%esp
 804c3da:	89 d9                	mov    %ebx,%ecx
 804c3dc:	66 c1 c9 08          	ror    $0x8,%cx
 804c3e0:	c1 c9 10             	ror    $0x10,%ecx
 804c3e3:	66 c1 c9 08          	ror    $0x8,%cx
 804c3e7:	0f b6 c1             	movzbl %cl,%eax
 804c3ea:	50                   	push   %eax
 804c3eb:	0f b6 c5             	movzbl %ch,%eax
 804c3ee:	c1 e9 10             	shr    $0x10,%ecx
 804c3f1:	50                   	push   %eax
 804c3f2:	0f b6 c1             	movzbl %cl,%eax
 804c3f5:	50                   	push   %eax
 804c3f6:	c1 e9 08             	shr    $0x8,%ecx
 804c3f9:	51                   	push   %ecx
 804c3fa:	68 18 6f 06 08       	push   $0x8066f18
 804c3ff:	e8 d8 ce ff ff       	call   80492dc <printf@plt>
 804c404:	83 c4 20             	add    $0x20,%esp
 804c407:	8d 65 f4             	lea    -0xc(%ebp),%esp
 804c40a:	5b                   	pop    %ebx
 804c40b:	5e                   	pop    %esi
 804c40c:	5f                   	pop    %edi
 804c40d:	5d                   	pop    %ebp
 804c40e:	c3                   	ret    

0804c40f <print_rule>:
 804c40f:	55                   	push   %ebp
 804c410:	89 e5                	mov    %esp,%ebp
 804c412:	57                   	push   %edi
 804c413:	56                   	push   %esi
 804c414:	53                   	push   %ebx
 804c415:	83 ec 1c             	sub    $0x1c,%esp
 804c418:	8b 55 14             	mov    0x14(%ebp),%edx
 804c41b:	8b 45 0c             	mov    0xc(%ebp),%eax
 804c41e:	8b 5d 08             	mov    0x8(%ebp),%ebx
 804c421:	8b 75 10             	mov    0x10(%ebp),%esi
 804c424:	85 d2                	test   %edx,%edx
 804c426:	89 45 e4             	mov    %eax,-0x1c(%ebp)
 804c429:	89 55 e0             	mov    %edx,-0x20(%ebp)
 804c42c:	7e 1c                	jle    804c44a <print_rule+0x3b>
 804c42e:	83 ec 0c             	sub    $0xc,%esp
 804c431:	ff 73 6c             	pushl  0x6c(%ebx)
 804c434:	ff 73 68             	pushl  0x68(%ebx)
 804c437:	ff 73 64             	pushl  0x64(%ebx)
 804c43a:	ff 73 60             	pushl  0x60(%ebx)
 804c43d:	68 26 6f 06 08       	push   $0x8066f26
 804c442:	e8 95 ce ff ff       	call   80492dc <printf@plt>
 804c447:	83 c4 20             	add    $0x20,%esp
 804c44a:	51                   	push   %ecx
 804c44b:	51                   	push   %ecx
 804c44c:	56                   	push   %esi
 804c44d:	68 33 6f 06 08       	push   $0x8066f33
 804c452:	e8 85 ce ff ff       	call   80492dc <printf@plt>
 804c457:	0f b6 43 53          	movzbl 0x53(%ebx),%eax
 804c45b:	8b 4b 08             	mov    0x8(%ebx),%ecx
 804c45e:	83 e0 08             	and    $0x8,%eax
 804c461:	89 04 24             	mov    %eax,(%esp)
 804c464:	8b 13                	mov    (%ebx),%edx
 804c466:	b8 3a 6f 06 08       	mov    $0x8066f3a,%eax
 804c46b:	e8 bc fe ff ff       	call   804c32c <print_ip>
 804c470:	0f b6 43 53          	movzbl 0x53(%ebx),%eax
 804c474:	8b 4b 0c             	mov    0xc(%ebx),%ecx
 804c477:	8b 53 04             	mov    0x4(%ebx),%edx
 804c47a:	83 e0 10             	and    $0x10,%eax
 804c47d:	89 04 24             	mov    %eax,(%esp)
 804c480:	b8 3d 6f 06 08       	mov    $0x8066f3d,%eax
 804c485:	e8 a2 fe ff ff       	call   804c32c <print_ip>
 804c48a:	0f b6 43 53          	movzbl 0x53(%ebx),%eax
 804c48e:	8d 4b 30             	lea    0x30(%ebx),%ecx
 804c491:	8d 53 10             	lea    0x10(%ebx),%edx
 804c494:	83 e0 01             	and    $0x1,%eax
 804c497:	89 04 24             	mov    %eax,(%esp)
 804c49a:	b8 69 00 00 00       	mov    $0x69,%eax
 804c49f:	e8 39 f6 ff ff       	call   804badd <print_iface>
 804c4a4:	0f b6 43 53          	movzbl 0x53(%ebx),%eax
 804c4a8:	8d 4b 40             	lea    0x40(%ebx),%ecx
 804c4ab:	8d 53 20             	lea    0x20(%ebx),%edx
 804c4ae:	83 e0 02             	and    $0x2,%eax
 804c4b1:	89 04 24             	mov    %eax,(%esp)
 804c4b4:	b8 6f 00 00 00       	mov    $0x6f,%eax
 804c4b9:	e8 1f f6 ff ff       	call   804badd <print_iface>
 804c4be:	8b 7b 50             	mov    0x50(%ebx),%edi
 804c4c1:	83 c4 10             	add    $0x10,%esp
 804c4c4:	8a 43 53             	mov    0x53(%ebx),%al
 804c4c7:	66 85 ff             	test   %di,%di
 804c4ca:	74 60                	je     804c52c <print_rule+0x11d>
 804c4cc:	a8 40                	test   $0x40,%al
 804c4ce:	be d5 6d 06 08       	mov    $0x8066dd5,%esi
 804c4d3:	75 05                	jne    804c4da <print_rule+0xcb>
 804c4d5:	be c9 67 06 08       	mov    $0x80667c9,%esi
 804c4da:	83 ec 0c             	sub    $0xc,%esp
 804c4dd:	0f b7 c7             	movzwl %di,%eax
 804c4e0:	89 45 e8             	mov    %eax,-0x18(%ebp)
 804c4e3:	50                   	push   %eax
 804c4e4:	e8 13 cd ff ff       	call   80491fc <getprotobynumber@plt>
 804c4e9:	83 c4 10             	add    $0x10,%esp
 804c4ec:	31 d2                	xor    %edx,%edx
 804c4ee:	85 c0                	test   %eax,%eax
 804c4f0:	74 1d                	je     804c50f <print_rule+0x100>
 804c4f2:	52                   	push   %edx
 804c4f3:	ff 30                	pushl  (%eax)
 804c4f5:	eb 0f                	jmp    804c506 <print_rule+0xf7>
 804c4f7:	0f b6 04 d5 f0 86 06 	movzbl 0x80686f0(,%edx,8),%eax
 804c4fe:	08 
 804c4ff:	66 39 f8             	cmp    %di,%ax
 804c502:	75 0a                	jne    804c50e <print_rule+0xff>
 804c504:	57                   	push   %edi
 804c505:	51                   	push   %ecx
 804c506:	56                   	push   %esi
 804c507:	68 40 6f 06 08       	push   $0x8066f40
 804c50c:	eb 16                	jmp    804c524 <print_rule+0x115>
 804c50e:	42                   	inc    %edx
 804c50f:	8b 0c d5 ec 86 06 08 	mov    0x80686ec(,%edx,8),%ecx
 804c516:	85 c9                	test   %ecx,%ecx
 804c518:	75 dd                	jne    804c4f7 <print_rule+0xe8>
 804c51a:	51                   	push   %ecx
 804c51b:	ff 75 e8             	pushl  -0x18(%ebp)
 804c51e:	56                   	push   %esi
 804c51f:	68 49 6f 06 08       	push   $0x8066f49
 804c524:	e8 b3 cd ff ff       	call   80492dc <printf@plt>
 804c529:	83 c4 10             	add    $0x10,%esp
 804c52c:	f6 43 52 01          	testb  $0x1,0x52(%ebx)
 804c530:	74 20                	je     804c552 <print_rule+0x143>
 804c532:	f6 43 53 20          	testb  $0x20,0x53(%ebx)
 804c536:	b8 d5 6d 06 08       	mov    $0x8066dd5,%eax
 804c53b:	75 05                	jne    804c542 <print_rule+0x133>
 804c53d:	b8 c9 67 06 08       	mov    $0x80667c9,%eax
 804c542:	52                   	push   %edx
 804c543:	52                   	push   %edx
 804c544:	50                   	push   %eax
 804c545:	68 52 6f 06 08       	push   $0x8066f52
 804c54a:	e8 8d cd ff ff       	call   80492dc <printf@plt>
 804c54f:	83 c4 10             	add    $0x10,%esp
 804c552:	66 83 7b 58 00       	cmpw   $0x0,0x58(%ebx)
 804c557:	c7 45 ec 70 00 00 00 	movl   $0x70,-0x14(%ebp)
 804c55e:	75 5d                	jne    804c5bd <print_rule+0x1ae>
 804c560:	eb 64                	jmp    804c5c6 <print_rule+0x1b7>
 804c562:	8b 55 ec             	mov    -0x14(%ebp),%edx
 804c565:	50                   	push   %eax
 804c566:	6a 00                	push   $0x0
 804c568:	6a 02                	push   $0x2
 804c56a:	8d 3c 13             	lea    (%ebx,%edx,1),%edi
 804c56d:	8d 77 02             	lea    0x2(%edi),%esi
 804c570:	56                   	push   %esi
 804c571:	e8 03 36 00 00       	call   804fb79 <xtables_find_match>
 804c576:	83 c4 10             	add    $0x10,%esp
 804c579:	85 c0                	test   %eax,%eax
 804c57b:	89 45 f0             	mov    %eax,-0x10(%ebp)
 804c57e:	74 25                	je     804c5a5 <print_rule+0x196>
 804c580:	51                   	push   %ecx
 804c581:	51                   	push   %ecx
 804c582:	56                   	push   %esi
 804c583:	68 58 6f 06 08       	push   $0x8066f58
 804c588:	e8 4f cd ff ff       	call   80492dc <printf@plt>
 804c58d:	8b 55 f0             	mov    -0x10(%ebp),%edx
 804c590:	83 c4 10             	add    $0x10,%esp
 804c593:	8b 42 2c             	mov    0x2c(%edx),%eax
 804c596:	85 c0                	test   %eax,%eax
 804c598:	74 1d                	je     804c5b7 <print_rule+0x1a8>
 804c59a:	52                   	push   %edx
 804c59b:	52                   	push   %edx
 804c59c:	57                   	push   %edi
 804c59d:	53                   	push   %ebx
 804c59e:	ff d0                	call   *%eax
 804c5a0:	83 c4 10             	add    $0x10,%esp
 804c5a3:	eb 12                	jmp    804c5b7 <print_rule+0x1a8>
 804c5a5:	66 83 3f 00          	cmpw   $0x0,(%edi)
 804c5a9:	74 0c                	je     804c5b7 <print_rule+0x1a8>
 804c5ab:	57                   	push   %edi
 804c5ac:	56                   	push   %esi
 804c5ad:	68 5f 6f 06 08       	push   $0x8066f5f
 804c5b2:	e9 94 00 00 00       	jmp    804c64b <print_rule+0x23c>
 804c5b7:	0f b7 07             	movzwl (%edi),%eax
 804c5ba:	01 45 ec             	add    %eax,-0x14(%ebp)
 804c5bd:	0f b7 43 58          	movzwl 0x58(%ebx),%eax
 804c5c1:	39 45 ec             	cmp    %eax,-0x14(%ebp)
 804c5c4:	72 9c                	jb     804c562 <print_rule+0x153>
 804c5c6:	83 7d e0 00          	cmpl   $0x0,-0x20(%ebp)
 804c5ca:	79 1c                	jns    804c5e8 <print_rule+0x1d9>
 804c5cc:	83 ec 0c             	sub    $0xc,%esp
 804c5cf:	ff 73 6c             	pushl  0x6c(%ebx)
 804c5d2:	ff 73 68             	pushl  0x68(%ebx)
 804c5d5:	ff 73 64             	pushl  0x64(%ebx)
 804c5d8:	ff 73 60             	pushl  0x60(%ebx)
 804c5db:	68 82 6f 06 08       	push   $0x8066f82
 804c5e0:	e8 f7 cc ff ff       	call   80492dc <printf@plt>
 804c5e5:	83 c4 20             	add    $0x20,%esp
 804c5e8:	56                   	push   %esi
 804c5e9:	56                   	push   %esi
 804c5ea:	ff 75 e4             	pushl  -0x1c(%ebp)
 804c5ed:	53                   	push   %ebx
 804c5ee:	e8 fc 4d 00 00       	call   80513ef <iptc_get_target>
 804c5f3:	83 c4 10             	add    $0x10,%esp
 804c5f6:	85 c0                	test   %eax,%eax
 804c5f8:	89 c2                	mov    %eax,%edx
 804c5fa:	74 27                	je     804c623 <print_rule+0x214>
 804c5fc:	80 38 00             	cmpb   $0x0,(%eax)
 804c5ff:	74 22                	je     804c623 <print_rule+0x214>
 804c601:	0f b6 43 52          	movzbl 0x52(%ebx),%eax
 804c605:	51                   	push   %ecx
 804c606:	52                   	push   %edx
 804c607:	83 e0 02             	and    $0x2,%eax
 804c60a:	83 f8 01             	cmp    $0x1,%eax
 804c60d:	19 c0                	sbb    %eax,%eax
 804c60f:	83 e0 03             	and    $0x3,%eax
 804c612:	83 c0 67             	add    $0x67,%eax
 804c615:	50                   	push   %eax
 804c616:	68 90 6f 06 08       	push   $0x8066f90
 804c61b:	e8 bc cc ff ff       	call   80492dc <printf@plt>
 804c620:	83 c4 10             	add    $0x10,%esp
 804c623:	0f b7 43 58          	movzwl 0x58(%ebx),%eax
 804c627:	8d 34 03             	lea    (%ebx,%eax,1),%esi
 804c62a:	80 7e 02 00          	cmpb   $0x0,0x2(%esi)
 804c62e:	74 53                	je     804c683 <print_rule+0x274>
 804c630:	50                   	push   %eax
 804c631:	50                   	push   %eax
 804c632:	6a 02                	push   $0x2
 804c634:	8d 7e 02             	lea    0x2(%esi),%edi
 804c637:	57                   	push   %edi
 804c638:	e8 49 22 00 00       	call   804e886 <xtables_find_target>
 804c63d:	83 c4 10             	add    $0x10,%esp
 804c640:	85 c0                	test   %eax,%eax
 804c642:	75 1e                	jne    804c662 <print_rule+0x253>
 804c644:	51                   	push   %ecx
 804c645:	57                   	push   %edi
 804c646:	68 98 6f 06 08       	push   $0x8066f98
 804c64b:	ff 35 14 97 07 08    	pushl  0x8079714
 804c651:	e8 06 cd ff ff       	call   804935c <fprintf@plt>
 804c656:	c7 04 24 01 00 00 00 	movl   $0x1,(%esp)
 804c65d:	e8 aa ce ff ff       	call   804950c <exit@plt>
 804c662:	8b 40 2c             	mov    0x2c(%eax),%eax
 804c665:	85 c0                	test   %eax,%eax
 804c667:	74 0b                	je     804c674 <print_rule+0x265>
 804c669:	52                   	push   %edx
 804c66a:	52                   	push   %edx
 804c66b:	56                   	push   %esi
 804c66c:	53                   	push   %ebx
 804c66d:	ff d0                	call   *%eax
 804c66f:	83 c4 10             	add    $0x10,%esp
 804c672:	eb 0f                	jmp    804c683 <print_rule+0x274>
 804c674:	66 83 3e 20          	cmpw   $0x20,(%esi)
 804c678:	74 09                	je     804c683 <print_rule+0x274>
 804c67a:	50                   	push   %eax
 804c67b:	57                   	push   %edi
 804c67c:	68 bc 6f 06 08       	push   $0x8066fbc
 804c681:	eb c8                	jmp    804c64b <print_rule+0x23c>
 804c683:	c7 45 08 0a 00 00 00 	movl   $0xa,0x8(%ebp)
 804c68a:	8d 65 f4             	lea    -0xc(%ebp),%esp
 804c68d:	5b                   	pop    %ebx
 804c68e:	5e                   	pop    %esi
 804c68f:	5f                   	pop    %edi
 804c690:	5d                   	pop    %ebp
 804c691:	e9 56 ca ff ff       	jmp    80490ec <putchar@plt>

0804c696 <delete_chain>:
 804c696:	55                   	push   %ebp
 804c697:	89 e5                	mov    %esp,%ebp
 804c699:	56                   	push   %esi
 804c69a:	53                   	push   %ebx
 804c69b:	8b 5d 08             	mov    0x8(%ebp),%ebx
 804c69e:	8b 45 0c             	mov    0xc(%ebp),%eax
 804c6a1:	8b 75 10             	mov    0x10(%ebp),%esi
 804c6a4:	85 db                	test   %ebx,%ebx
 804c6a6:	75 18                	jne    804c6c0 <delete_chain+0x2a>
 804c6a8:	56                   	push   %esi
 804c6a9:	6a 00                	push   $0x0
 804c6ab:	50                   	push   %eax
 804c6ac:	68 96 c6 04 08       	push   $0x804c696
 804c6b1:	e8 d4 fa ff ff       	call   804c18a <for_each_chain>
 804c6b6:	83 c4 10             	add    $0x10,%esp
 804c6b9:	8d 65 f8             	lea    -0x8(%ebp),%esp
 804c6bc:	5b                   	pop    %ebx
 804c6bd:	5e                   	pop    %esi
 804c6be:	5d                   	pop    %ebp
 804c6bf:	c3                   	ret    
 804c6c0:	85 c0                	test   %eax,%eax
 804c6c2:	74 15                	je     804c6d9 <delete_chain+0x43>
 804c6c4:	50                   	push   %eax
 804c6c5:	53                   	push   %ebx
 804c6c6:	68 e2 6f 06 08       	push   $0x8066fe2
 804c6cb:	ff 35 20 97 07 08    	pushl  0x8079720
 804c6d1:	e8 86 cc ff ff       	call   804935c <fprintf@plt>
 804c6d6:	83 c4 10             	add    $0x10,%esp
 804c6d9:	89 75 0c             	mov    %esi,0xc(%ebp)
 804c6dc:	89 5d 08             	mov    %ebx,0x8(%ebp)
 804c6df:	8d 65 f8             	lea    -0x8(%ebp),%esp
 804c6e2:	5b                   	pop    %ebx
 804c6e3:	5e                   	pop    %esi
 804c6e4:	5d                   	pop    %ebp
 804c6e5:	e9 44 4a 00 00       	jmp    805112e <iptc_delete_chain>

0804c6ea <flush_entries>:
 804c6ea:	55                   	push   %ebp
 804c6eb:	89 e5                	mov    %esp,%ebp
 804c6ed:	56                   	push   %esi
 804c6ee:	53                   	push   %ebx
 804c6ef:	8b 5d 08             	mov    0x8(%ebp),%ebx
 804c6f2:	8b 45 0c             	mov    0xc(%ebp),%eax
 804c6f5:	8b 75 10             	mov    0x10(%ebp),%esi
 804c6f8:	85 db                	test   %ebx,%ebx
 804c6fa:	75 18                	jne    804c714 <flush_entries+0x2a>
 804c6fc:	56                   	push   %esi
 804c6fd:	6a 01                	push   $0x1
 804c6ff:	50                   	push   %eax
 804c700:	68 ea c6 04 08       	push   $0x804c6ea
 804c705:	e8 80 fa ff ff       	call   804c18a <for_each_chain>
 804c70a:	83 c4 10             	add    $0x10,%esp
 804c70d:	8d 65 f8             	lea    -0x8(%ebp),%esp
 804c710:	5b                   	pop    %ebx
 804c711:	5e                   	pop    %esi
 804c712:	5d                   	pop    %ebp
 804c713:	c3                   	ret    
 804c714:	85 c0                	test   %eax,%eax
 804c716:	74 15                	je     804c72d <flush_entries+0x43>
 804c718:	50                   	push   %eax
 804c719:	53                   	push   %ebx
 804c71a:	68 f7 6f 06 08       	push   $0x8066ff7
 804c71f:	ff 35 20 97 07 08    	pushl  0x8079720
 804c725:	e8 32 cc ff ff       	call   804935c <fprintf@plt>
 804c72a:	83 c4 10             	add    $0x10,%esp
 804c72d:	89 75 0c             	mov    %esi,0xc(%ebp)
 804c730:	89 5d 08             	mov    %ebx,0x8(%ebp)
 804c733:	8d 65 f8             	lea    -0x8(%ebp),%esp
 804c736:	5b                   	pop    %ebx
 804c737:	5e                   	pop    %esi
 804c738:	5d                   	pop    %ebp
 804c739:	e9 b2 47 00 00       	jmp    8050ef0 <iptc_flush_entries>

0804c73e <do_command>:
 804c73e:	55                   	push   %ebp
 804c73f:	31 c0                	xor    %eax,%eax
 804c741:	89 e5                	mov    %esp,%ebp
 804c743:	b9 1c 00 00 00       	mov    $0x1c,%ecx
 804c748:	57                   	push   %edi
 804c749:	56                   	push   %esi
 804c74a:	53                   	push   %ebx
 804c74b:	8d bd 40 ff ff ff    	lea    -0xc0(%ebp),%edi
 804c751:	81 ec 7c 01 00 00    	sub    $0x17c,%esp
 804c757:	f3 ab                	rep stos %eax,%es:(%edi)
 804c759:	a1 a0 0e 0c 08       	mov    0x80c0ea0,%eax
 804c75e:	c7 45 ec 00 00 00 00 	movl   $0x0,-0x14(%ebp)
 804c765:	c7 45 e8 00 00 00 00 	movl   $0x0,-0x18(%ebp)
 804c76c:	c7 45 e4 00 00 00 00 	movl   $0x0,-0x1c(%ebp)
 804c773:	c7 45 e0 00 00 00 00 	movl   $0x0,-0x20(%ebp)
 804c77a:	c7 45 dc 00 00 00 00 	movl   $0x0,-0x24(%ebp)
 804c781:	c7 45 d8 00 00 00 00 	movl   $0x0,-0x28(%ebp)
 804c788:	c7 45 d4 00 00 00 00 	movl   $0x0,-0x2c(%ebp)
 804c78f:	c7 45 d0 00 00 00 00 	movl   $0x0,-0x30(%ebp)
 804c796:	c7 05 10 97 07 08 00 	movl   $0x0,0x8079710
 804c79d:	00 00 00 
 804c7a0:	eb 0a                	jmp    804c7ac <do_command+0x6e>
 804c7a2:	c7 40 3c 00 00 00 00 	movl   $0x0,0x3c(%eax)
 804c7a9:	8b 40 04             	mov    0x4(%eax),%eax
 804c7ac:	85 c0                	test   %eax,%eax
 804c7ae:	75 f2                	jne    804c7a2 <do_command+0x64>
 804c7b0:	a1 98 0e 0c 08       	mov    0x80c0e98,%eax
 804c7b5:	eb 11                	jmp    804c7c8 <do_command+0x8a>
 804c7b7:	c7 40 3c 00 00 00 00 	movl   $0x0,0x3c(%eax)
 804c7be:	c7 40 40 00 00 00 00 	movl   $0x0,0x40(%eax)
 804c7c5:	8b 40 04             	mov    0x4(%eax),%eax
 804c7c8:	85 c0                	test   %eax,%eax
 804c7ca:	75 eb                	jne    804c7b7 <do_command+0x79>
 804c7cc:	c7 05 24 97 07 08 00 	movl   $0x0,0x8079724
 804c7d3:	00 00 00 
 804c7d6:	c7 85 ac fe ff ff 00 	movl   $0x0,-0x154(%ebp)
 804c7dd:	00 00 00 
 804c7e0:	c7 85 b0 fe ff ff 00 	movl   $0x0,-0x150(%ebp)
 804c7e7:	00 00 00 
 804c7ea:	c7 85 b4 fe ff ff 00 	movl   $0x0,-0x14c(%ebp)
 804c7f1:	00 00 00 
 804c7f4:	c7 85 b8 fe ff ff 00 	movl   $0x0,-0x148(%ebp)
 804c7fb:	00 00 00 
 804c7fe:	c7 85 bc fe ff ff 00 	movl   $0x0,-0x144(%ebp)
 804c805:	00 00 00 
 804c808:	c7 85 c0 fe ff ff 00 	movl   $0x0,-0x140(%ebp)
 804c80f:	00 00 00 
 804c812:	c7 85 c4 fe ff ff 00 	movl   $0x0,-0x13c(%ebp)
 804c819:	00 00 00 
 804c81c:	c7 85 c8 fe ff ff 00 	movl   $0x0,-0x138(%ebp)
 804c823:	00 00 00 
 804c826:	c7 85 cc fe ff ff c9 	movl   $0x80667c9,-0x134(%ebp)
 804c82d:	67 06 08 
 804c830:	c7 85 e4 fe ff ff 00 	movl   $0x0,-0x11c(%ebp)
 804c837:	00 00 00 
 804c83a:	c7 85 d0 fe ff ff 00 	movl   $0x0,-0x130(%ebp)
 804c841:	00 00 00 
 804c844:	e9 f8 0d 00 00       	jmp    804d641 <do_command+0xf03>
 804c849:	83 fb 5a             	cmp    $0x5a,%ebx
 804c84c:	0f 84 24 03 00 00    	je     804cb76 <do_command+0x438>
 804c852:	0f 8f 9b 00 00 00    	jg     804c8f3 <do_command+0x1b5>
 804c858:	83 fb 4c             	cmp    $0x4c,%ebx
 804c85b:	0f 84 5e 02 00 00    	je     804cabf <do_command+0x381>
 804c861:	7f 48                	jg     804c8ab <do_command+0x16d>
 804c863:	83 fb 44             	cmp    $0x44,%ebx
 804c866:	0f 84 47 01 00 00    	je     804c9b3 <do_command+0x275>
 804c86c:	7f 20                	jg     804c88e <do_command+0x150>
 804c86e:	83 fb 30             	cmp    $0x30,%ebx
 804c871:	0f 84 00 0a 00 00    	je     804d277 <do_command+0xb39>
 804c877:	83 fb 41             	cmp    $0x41,%ebx
 804c87a:	0f 84 0e 01 00 00    	je     804c98e <do_command+0x250>
 804c880:	83 fb 01             	cmp    $0x1,%ebx
 804c883:	0f 85 93 0b 00 00    	jne    804d41c <do_command+0xcde>
 804c889:	e9 3e 0b 00 00       	jmp    804d3cc <do_command+0xc8e>
 804c88e:	83 fb 46             	cmp    $0x46,%ebx
 804c891:	0f 84 ca 02 00 00    	je     804cb61 <do_command+0x423>
 804c897:	0f 8c de 03 00 00    	jl     804cc7b <do_command+0x53d>
 804c89d:	83 fb 49             	cmp    $0x49,%ebx
 804c8a0:	0f 85 76 0b 00 00    	jne    804d41c <do_command+0xcde>
 804c8a6:	e9 c3 01 00 00       	jmp    804ca6e <do_command+0x330>
 804c8ab:	83 fb 52             	cmp    $0x52,%ebx
 804c8ae:	0f 84 6a 01 00 00    	je     804ca1e <do_command+0x2e0>
 804c8b4:	7f 1d                	jg     804c8d3 <do_command+0x195>
 804c8b6:	83 fb 4e             	cmp    $0x4e,%ebx
 804c8b9:	0f 84 f9 02 00 00    	je     804cbb8 <do_command+0x47a>
 804c8bf:	0f 8c d0 09 00 00    	jl     804d295 <do_command+0xb57>
 804c8c5:	83 fb 50             	cmp    $0x50,%ebx
 804c8c8:	0f 85 4e 0b 00 00    	jne    804d41c <do_command+0xcde>
 804c8ce:	e9 26 04 00 00       	jmp    804ccf9 <do_command+0x5bb>
 804c8d3:	83 fb 56             	cmp    $0x56,%ebx
 804c8d6:	0f 84 62 09 00 00    	je     804d23e <do_command+0xb00>
 804c8dc:	83 fb 58             	cmp    $0x58,%ebx
 804c8df:	0f 84 3b 03 00 00    	je     804cc20 <do_command+0x4e2>
 804c8e5:	83 fb 53             	cmp    $0x53,%ebx
 804c8e8:	0f 85 2e 0b 00 00    	jne    804d41c <do_command+0xcde>
 804c8ee:	e9 e1 01 00 00       	jmp    804cad4 <do_command+0x396>
 804c8f3:	83 fb 6d             	cmp    $0x6d,%ebx
 804c8f6:	0f 84 55 08 00 00    	je     804d151 <do_command+0xa13>
 804c8fc:	7f 48                	jg     804c946 <do_command+0x208>
 804c8fe:	83 fb 67             	cmp    $0x67,%ebx
 804c901:	0f 84 68 06 00 00    	je     804cf6f <do_command+0x831>
 804c907:	7f 20                	jg     804c929 <do_command+0x1eb>
 804c909:	83 fb 64             	cmp    $0x64,%ebx
 804c90c:	0f 84 13 06 00 00    	je     804cf25 <do_command+0x7e7>
 804c912:	83 fb 66             	cmp    $0x66,%ebx
 804c915:	0f 84 ea 07 00 00    	je     804d105 <do_command+0x9c7>
 804c91b:	83 fb 63             	cmp    $0x63,%ebx
 804c91e:	0f 85 f8 0a 00 00    	jne    804d41c <do_command+0xcde>
 804c924:	e9 7b 09 00 00       	jmp    804d2a4 <do_command+0xb66>
 804c929:	83 fb 69             	cmp    $0x69,%ebx
 804c92c:	0f 84 2a 07 00 00    	je     804d05c <do_command+0x91e>
 804c932:	0f 8c 3e 04 00 00    	jl     804cd76 <do_command+0x638>
 804c938:	83 fb 6a             	cmp    $0x6a,%ebx
 804c93b:	0f 85 db 0a 00 00    	jne    804d41c <do_command+0xcde>
 804c941:	e9 58 06 00 00       	jmp    804cf9e <do_command+0x860>
 804c946:	83 fb 73             	cmp    $0x73,%ebx
 804c949:	0f 84 8c 05 00 00    	je     804cedb <do_command+0x79d>
 804c94f:	7f 1d                	jg     804c96e <do_command+0x230>
 804c951:	83 fb 6f             	cmp    $0x6f,%ebx
 804c954:	0f 84 54 07 00 00    	je     804d0ae <do_command+0x970>
 804c95a:	0f 8c 97 08 00 00    	jl     804d1f7 <do_command+0xab9>
 804c960:	83 fb 70             	cmp    $0x70,%ebx
 804c963:	0f 85 b3 0a 00 00    	jne    804d41c <do_command+0xcde>
 804c969:	e9 c0 04 00 00       	jmp    804ce2e <do_command+0x6f0>
 804c96e:	83 fb 76             	cmp    $0x76,%ebx
 804c971:	0f 84 ad 07 00 00    	je     804d124 <do_command+0x9e6>
 804c977:	83 fb 78             	cmp    $0x78,%ebx
 804c97a:	0f 84 ab 08 00 00    	je     804d22b <do_command+0xaed>
 804c980:	83 fb 74             	cmp    $0x74,%ebx
 804c983:	0f 85 93 0a 00 00    	jne    804d41c <do_command+0xcde>
 804c989:	e9 7c 08 00 00       	jmp    804d20a <do_command+0xacc>
 804c98e:	83 ec 0c             	sub    $0xc,%esp
 804c991:	31 c9                	xor    %ecx,%ecx
 804c993:	ff 75 ec             	pushl  -0x14(%ebp)
 804c996:	ba 10 00 00 00       	mov    $0x10,%edx
 804c99b:	8d 45 d4             	lea    -0x2c(%ebp),%eax
 804c99e:	e8 91 ee ff ff       	call   804b834 <add_command>
 804c9a3:	a1 28 97 07 08       	mov    0x8079728,%eax
 804c9a8:	89 85 b0 fe ff ff    	mov    %eax,-0x150(%ebp)
 804c9ae:	e9 da 08 00 00       	jmp    804d28d <do_command+0xb4f>
 804c9b3:	83 ec 0c             	sub    $0xc,%esp
 804c9b6:	31 c9                	xor    %ecx,%ecx
 804c9b8:	ff 75 ec             	pushl  -0x14(%ebp)
 804c9bb:	ba 02 00 00 00       	mov    $0x2,%edx
 804c9c0:	8d 45 d4             	lea    -0x2c(%ebp),%eax
 804c9c3:	e8 6c ee ff ff       	call   804b834 <add_command>
 804c9c8:	8b 15 28 97 07 08    	mov    0x8079728,%edx
 804c9ce:	83 c4 10             	add    $0x10,%esp
 804c9d1:	a1 10 97 07 08       	mov    0x8079710,%eax
 804c9d6:	3b 45 08             	cmp    0x8(%ebp),%eax
 804c9d9:	89 95 b0 fe ff ff    	mov    %edx,-0x150(%ebp)
 804c9df:	0f 8d 55 0c 00 00    	jge    804d63a <do_command+0xefc>
 804c9e5:	8b 7d 0c             	mov    0xc(%ebp),%edi
 804c9e8:	8b 0c 87             	mov    (%edi,%eax,4),%ecx
 804c9eb:	8a 11                	mov    (%ecx),%dl
 804c9ed:	80 fa 2d             	cmp    $0x2d,%dl
 804c9f0:	0f 84 44 0c 00 00    	je     804d63a <do_command+0xefc>
 804c9f6:	80 fa 21             	cmp    $0x21,%dl
 804c9f9:	0f 84 3b 0c 00 00    	je     804d63a <do_command+0xefc>
 804c9ff:	40                   	inc    %eax
 804ca00:	a3 10 97 07 08       	mov    %eax,0x8079710
 804ca05:	89 c8                	mov    %ecx,%eax
 804ca07:	e8 95 f0 ff ff       	call   804baa1 <parse_rulenumber>
 804ca0c:	c7 45 d4 04 00 00 00 	movl   $0x4,-0x2c(%ebp)
 804ca13:	89 85 c4 fe ff ff    	mov    %eax,-0x13c(%ebp)
 804ca19:	e9 1c 0c 00 00       	jmp    804d63a <do_command+0xefc>
 804ca1e:	83 ec 0c             	sub    $0xc,%esp
 804ca21:	31 c9                	xor    %ecx,%ecx
 804ca23:	ff 75 ec             	pushl  -0x14(%ebp)
 804ca26:	ba 08 00 00 00       	mov    $0x8,%edx
 804ca2b:	8d 45 d4             	lea    -0x2c(%ebp),%eax
 804ca2e:	e8 01 ee ff ff       	call   804b834 <add_command>
 804ca33:	a1 28 97 07 08       	mov    0x8079728,%eax
 804ca38:	83 c4 10             	add    $0x10,%esp
 804ca3b:	89 85 b0 fe ff ff    	mov    %eax,-0x150(%ebp)
 804ca41:	a1 10 97 07 08       	mov    0x8079710,%eax
 804ca46:	3b 45 08             	cmp    0x8(%ebp),%eax
 804ca49:	7d 16                	jge    804ca61 <do_command+0x323>
 804ca4b:	8b 55 0c             	mov    0xc(%ebp),%edx
 804ca4e:	8b 0c 82             	mov    (%edx,%eax,4),%ecx
 804ca51:	8a 11                	mov    (%ecx),%dl
 804ca53:	80 fa 2d             	cmp    $0x2d,%dl
 804ca56:	74 09                	je     804ca61 <do_command+0x323>
 804ca58:	80 fa 21             	cmp    $0x21,%dl
 804ca5b:	0f 85 e8 00 00 00    	jne    804cb49 <do_command+0x40b>
 804ca61:	50                   	push   %eax
 804ca62:	6a 52                	push   $0x52
 804ca64:	68 0c 70 06 08       	push   $0x806700c
 804ca69:	e9 68 01 00 00       	jmp    804cbd6 <do_command+0x498>
 804ca6e:	83 ec 0c             	sub    $0xc,%esp
 804ca71:	31 c9                	xor    %ecx,%ecx
 804ca73:	ff 75 ec             	pushl  -0x14(%ebp)
 804ca76:	ba 01 00 00 00       	mov    $0x1,%edx
 804ca7b:	8d 45 d4             	lea    -0x2c(%ebp),%eax
 804ca7e:	e8 b1 ed ff ff       	call   804b834 <add_command>
 804ca83:	8b 0d 28 97 07 08    	mov    0x8079728,%ecx
 804ca89:	83 c4 10             	add    $0x10,%esp
 804ca8c:	a1 10 97 07 08       	mov    0x8079710,%eax
 804ca91:	3b 45 08             	cmp    0x8(%ebp),%eax
 804ca94:	89 8d b0 fe ff ff    	mov    %ecx,-0x150(%ebp)
 804ca9a:	0f 8d 90 0b 00 00    	jge    804d630 <do_command+0xef2>
 804caa0:	8b 7d 0c             	mov    0xc(%ebp),%edi
